
zlib1.so:     file format elf64-x86-64


Disassembly of section .init:

0000000000002058 <_init>:
    2058:	48 83 ec 08          	sub    $0x8,%rsp
    205c:	48 8b 05 85 af 21 00 	mov    0x21af85(%rip),%rax        # 21cfe8 <__gmon_start__>
    2063:	48 85 c0             	test   %rax,%rax
    2066:	74 02                	je     206a <_init+0x12>
    2068:	ff d0                	callq  *%rax
    206a:	48 83 c4 08          	add    $0x8,%rsp
    206e:	c3                   	retq   

Disassembly of section .plt:

0000000000002070 <.plt>:
    2070:	ff 35 92 af 21 00    	pushq  0x21af92(%rip)        # 21d008 <_GLOBAL_OFFSET_TABLE_+0x8>
    2076:	ff 25 94 af 21 00    	jmpq   *0x21af94(%rip)        # 21d010 <_GLOBAL_OFFSET_TABLE_+0x10>
    207c:	0f 1f 40 00          	nopl   0x0(%rax)

0000000000002080 <crc32_z@plt>:
    2080:	ff 25 92 af 21 00    	jmpq   *0x21af92(%rip)        # 21d018 <crc32_z@@ZLIB_1.2.9+0x21a44a>
    2086:	68 00 00 00 00       	pushq  $0x0
    208b:	e9 e0 ff ff ff       	jmpq   2070 <.plt>

0000000000002090 <gzvprintf@plt>:
    2090:	ff 25 8a af 21 00    	jmpq   *0x21af8a(%rip)        # 21d020 <gzvprintf@@ZLIB_1.2.7.1+0x2071f5>
    2096:	68 01 00 00 00       	pushq  $0x1
    209b:	e9 d0 ff ff ff       	jmpq   2070 <.plt>

00000000000020a0 <gzseek64@plt>:
    20a0:	ff 25 82 af 21 00    	jmpq   *0x21af82(%rip)        # 21d028 <gzseek64@@ZLIB_1.2.3.3+0x2095e0>
    20a6:	68 02 00 00 00       	pushq  $0x2
    20ab:	e9 c0 ff ff ff       	jmpq   2070 <.plt>

00000000000020b0 <free@plt>:
    20b0:	ff 25 7a af 21 00    	jmpq   *0x21af7a(%rip)        # 21d030 <free@GLIBC_2.2.5>
    20b6:	68 03 00 00 00       	pushq  $0x3
    20bb:	e9 b0 ff ff ff       	jmpq   2070 <.plt>

00000000000020c0 <__errno_location@plt>:
    20c0:	ff 25 72 af 21 00    	jmpq   *0x21af72(%rip)        # 21d038 <__errno_location@GLIBC_2.2.5>
    20c6:	68 04 00 00 00       	pushq  $0x4
    20cb:	e9 a0 ff ff ff       	jmpq   2070 <.plt>

00000000000020d0 <inflate@plt>:
    20d0:	ff 25 6a af 21 00    	jmpq   *0x21af6a(%rip)        # 21d040 <inflate@@Base+0x2113fc>
    20d6:	68 05 00 00 00       	pushq  $0x5
    20db:	e9 90 ff ff ff       	jmpq   2070 <.plt>

00000000000020e0 <gzclose_r@plt>:
    20e0:	ff 25 62 af 21 00    	jmpq   *0x21af62(%rip)        # 21d048 <gzclose_r@@ZLIB_1.2.3.5+0x207dfe>
    20e6:	68 06 00 00 00       	pushq  $0x6
    20eb:	e9 80 ff ff ff       	jmpq   2070 <.plt>

00000000000020f0 <gzgetc@plt>:
    20f0:	ff 25 5a af 21 00    	jmpq   *0x21af5a(%rip)        # 21d050 <gzgetc@@Base+0x208353>
    20f6:	68 07 00 00 00       	pushq  $0x7
    20fb:	e9 70 ff ff ff       	jmpq   2070 <.plt>

0000000000002100 <vsnprintf@plt>:
    2100:	ff 25 52 af 21 00    	jmpq   *0x21af52(%rip)        # 21d058 <vsnprintf@GLIBC_2.2.5>
    2106:	68 08 00 00 00       	pushq  $0x8
    210b:	e9 60 ff ff ff       	jmpq   2070 <.plt>

0000000000002110 <crc32@plt>:
    2110:	ff 25 4a af 21 00    	jmpq   *0x21af4a(%rip)        # 21d060 <crc32@@Base+0x21a409>
    2116:	68 09 00 00 00       	pushq  $0x9
    211b:	e9 50 ff ff ff       	jmpq   2070 <.plt>

0000000000002120 <write@plt>:
    2120:	ff 25 42 af 21 00    	jmpq   *0x21af42(%rip)        # 21d068 <write@GLIBC_2.2.5>
    2126:	68 0a 00 00 00       	pushq  $0xa
    212b:	e9 40 ff ff ff       	jmpq   2070 <.plt>

0000000000002130 <inflateResetKeep@plt>:
    2130:	ff 25 3a af 21 00    	jmpq   *0x21af3a(%rip)        # 21d070 <inflateResetKeep@@ZLIB_1.2.5.2+0x211b2d>
    2136:	68 0b 00 00 00       	pushq  $0xb
    213b:	e9 30 ff ff ff       	jmpq   2070 <.plt>

0000000000002140 <strlen@plt>:
    2140:	ff 25 32 af 21 00    	jmpq   *0x21af32(%rip)        # 21d078 <strlen@GLIBC_2.2.5>
    2146:	68 0c 00 00 00       	pushq  $0xc
    214b:	e9 20 ff ff ff       	jmpq   2070 <.plt>

0000000000002150 <__stack_chk_fail@plt>:
    2150:	ff 25 2a af 21 00    	jmpq   *0x21af2a(%rip)        # 21d080 <__stack_chk_fail@GLIBC_2.4>
    2156:	68 0d 00 00 00       	pushq  $0xd
    215b:	e9 10 ff ff ff       	jmpq   2070 <.plt>

0000000000002160 <snprintf@plt>:
    2160:	ff 25 22 af 21 00    	jmpq   *0x21af22(%rip)        # 21d088 <snprintf@GLIBC_2.2.5>
    2166:	68 0e 00 00 00       	pushq  $0xe
    216b:	e9 00 ff ff ff       	jmpq   2070 <.plt>

0000000000002170 <deflateReset@plt>:
    2170:	ff 25 1a af 21 00    	jmpq   *0x21af1a(%rip)        # 21d090 <deflateReset@@Base+0x218991>
    2176:	68 0f 00 00 00       	pushq  $0xf
    217b:	e9 f0 fe ff ff       	jmpq   2070 <.plt>

0000000000002180 <deflate@plt>:
    2180:	ff 25 12 af 21 00    	jmpq   *0x21af12(%rip)        # 21d098 <deflate@@Base+0x2181cd>
    2186:	68 10 00 00 00       	pushq  $0x10
    218b:	e9 e0 fe ff ff       	jmpq   2070 <.plt>

0000000000002190 <memset@plt>:
    2190:	ff 25 0a af 21 00    	jmpq   *0x21af0a(%rip)        # 21d0a0 <memset@GLIBC_2.2.5>
    2196:	68 11 00 00 00       	pushq  $0x11
    219b:	e9 d0 fe ff ff       	jmpq   2070 <.plt>

00000000000021a0 <close@plt>:
    21a0:	ff 25 02 af 21 00    	jmpq   *0x21af02(%rip)        # 21d0a8 <close@GLIBC_2.2.5>
    21a6:	68 12 00 00 00       	pushq  $0x12
    21ab:	e9 c0 fe ff ff       	jmpq   2070 <.plt>

00000000000021b0 <gztell64@plt>:
    21b0:	ff 25 fa ae 21 00    	jmpq   *0x21aefa(%rip)        # 21d0b0 <gztell64@@ZLIB_1.2.3.3+0x209387>
    21b6:	68 13 00 00 00       	pushq  $0x13
    21bb:	e9 b0 fe ff ff       	jmpq   2070 <.plt>

00000000000021c0 <deflateInit2_@plt>:
    21c0:	ff 25 f2 ae 21 00    	jmpq   *0x21aef2(%rip)        # 21d0b8 <deflateInit2_@@Base+0x2193fe>
    21c6:	68 14 00 00 00       	pushq  $0x14
    21cb:	e9 a0 fe ff ff       	jmpq   2070 <.plt>

00000000000021d0 <memchr@plt>:
    21d0:	ff 25 ea ae 21 00    	jmpq   *0x21aeea(%rip)        # 21d0c0 <memchr@GLIBC_2.2.5>
    21d6:	68 15 00 00 00       	pushq  $0x15
    21db:	e9 90 fe ff ff       	jmpq   2070 <.plt>

00000000000021e0 <read@plt>:
    21e0:	ff 25 e2 ae 21 00    	jmpq   *0x21aee2(%rip)        # 21d0c8 <read@GLIBC_2.2.5>
    21e6:	68 16 00 00 00       	pushq  $0x16
    21eb:	e9 80 fe ff ff       	jmpq   2070 <.plt>

00000000000021f0 <deflateParams@plt>:
    21f0:	ff 25 da ae 21 00    	jmpq   *0x21aeda(%rip)        # 21d0d0 <deflateParams@@Base+0x2187e1>
    21f6:	68 17 00 00 00       	pushq  $0x17
    21fb:	e9 70 fe ff ff       	jmpq   2070 <.plt>

0000000000002200 <deflateInit_@plt>:
    2200:	ff 25 d2 ae 21 00    	jmpq   *0x21aed2(%rip)        # 21d0d8 <deflateInit_@@Base+0x219466>
    2206:	68 18 00 00 00       	pushq  $0x18
    220b:	e9 60 fe ff ff       	jmpq   2070 <.plt>

0000000000002210 <memcpy@plt>:
    2210:	ff 25 ca ae 21 00    	jmpq   *0x21aeca(%rip)        # 21d0e0 <memcpy@GLIBC_2.14>
    2216:	68 19 00 00 00       	pushq  $0x19
    221b:	e9 50 fe ff ff       	jmpq   2070 <.plt>

0000000000002220 <uncompress2@plt>:
    2220:	ff 25 c2 ae 21 00    	jmpq   *0x21aec2(%rip)        # 21d0e8 <uncompress2@@ZLIB_1.2.9+0x209faa>
    2226:	68 1a 00 00 00       	pushq  $0x1a
    222b:	e9 40 fe ff ff       	jmpq   2070 <.plt>

0000000000002230 <inflateEnd@plt>:
    2230:	ff 25 ba ae 21 00    	jmpq   *0x21aeba(%rip)        # 21d0f0 <inflateEnd@@Base+0x20efc8>
    2236:	68 1b 00 00 00       	pushq  $0x1b
    223b:	e9 30 fe ff ff       	jmpq   2070 <.plt>

0000000000002240 <adler32@plt>:
    2240:	ff 25 b2 ae 21 00    	jmpq   *0x21aeb2(%rip)        # 21d0f8 <adler32@@Base+0x21a70e>
    2246:	68 1c 00 00 00       	pushq  $0x1c
    224b:	e9 20 fe ff ff       	jmpq   2070 <.plt>

0000000000002250 <malloc@plt>:
    2250:	ff 25 aa ae 21 00    	jmpq   *0x21aeaa(%rip)        # 21d100 <malloc@GLIBC_2.2.5>
    2256:	68 1d 00 00 00       	pushq  $0x1d
    225b:	e9 10 fe ff ff       	jmpq   2070 <.plt>

0000000000002260 <gzclose_w@plt>:
    2260:	ff 25 a2 ae 21 00    	jmpq   *0x21aea2(%rip)        # 21d108 <gzclose_w@@ZLIB_1.2.3.5+0x206dea>
    2266:	68 1e 00 00 00       	pushq  $0x1e
    226b:	e9 00 fe ff ff       	jmpq   2070 <.plt>

0000000000002270 <deflateEnd@plt>:
    2270:	ff 25 9a ae 21 00    	jmpq   *0x21ae9a(%rip)        # 21d110 <deflateEnd@@Base+0x216f60>
    2276:	68 1f 00 00 00       	pushq  $0x1f
    227b:	e9 f0 fd ff ff       	jmpq   2070 <.plt>

0000000000002280 <gzrewind@plt>:
    2280:	ff 25 92 ae 21 00    	jmpq   *0x21ae92(%rip)        # 21d118 <gzrewind@@Base+0x20975c>
    2286:	68 20 00 00 00       	pushq  $0x20
    228b:	e9 e0 fd ff ff       	jmpq   2070 <.plt>

0000000000002290 <gzoffset64@plt>:
    2290:	ff 25 8a ae 21 00    	jmpq   *0x21ae8a(%rip)        # 21d120 <gzoffset64@@ZLIB_1.2.3.5+0x209369>
    2296:	68 21 00 00 00       	pushq  $0x21
    229b:	e9 d0 fd ff ff       	jmpq   2070 <.plt>

00000000000022a0 <inflateInit_@plt>:
    22a0:	ff 25 82 ae 21 00    	jmpq   *0x21ae82(%rip)        # 21d128 <inflateInit_@@Base+0x21182d>
    22a6:	68 22 00 00 00       	pushq  $0x22
    22ab:	e9 c0 fd ff ff       	jmpq   2070 <.plt>

00000000000022b0 <compress2@plt>:
    22b0:	ff 25 7a ae 21 00    	jmpq   *0x21ae7a(%rip)        # 21d130 <compress2@@Base+0x20a21f>
    22b6:	68 23 00 00 00       	pushq  $0x23
    22bb:	e9 b0 fd ff ff       	jmpq   2070 <.plt>

00000000000022c0 <open@plt>:
    22c0:	ff 25 72 ae 21 00    	jmpq   *0x21ae72(%rip)        # 21d138 <open@GLIBC_2.2.5>
    22c6:	68 24 00 00 00       	pushq  $0x24
    22cb:	e9 a0 fd ff ff       	jmpq   2070 <.plt>

00000000000022d0 <inflateInit2_@plt>:
    22d0:	ff 25 6a ae 21 00    	jmpq   *0x21ae6a(%rip)        # 21d140 <inflateInit2_@@Base+0x211989>
    22d6:	68 25 00 00 00       	pushq  $0x25
    22db:	e9 90 fd ff ff       	jmpq   2070 <.plt>

00000000000022e0 <inflateReset@plt>:
    22e0:	ff 25 62 ae 21 00    	jmpq   *0x21ae62(%rip)        # 21d148 <inflateReset@@Base+0x211ace>
    22e6:	68 26 00 00 00       	pushq  $0x26
    22eb:	e9 80 fd ff ff       	jmpq   2070 <.plt>

00000000000022f0 <lseek64@plt>:
    22f0:	ff 25 5a ae 21 00    	jmpq   *0x21ae5a(%rip)        # 21d150 <lseek64@GLIBC_2.2.5>
    22f6:	68 27 00 00 00       	pushq  $0x27
    22fb:	e9 70 fd ff ff       	jmpq   2070 <.plt>

0000000000002300 <deflateResetKeep@plt>:
    2300:	ff 25 52 ae 21 00    	jmpq   *0x21ae52(%rip)        # 21d158 <deflateResetKeep@@ZLIB_1.2.5.2+0x218b8a>
    2306:	68 28 00 00 00       	pushq  $0x28
    230b:	e9 60 fd ff ff       	jmpq   2070 <.plt>

0000000000002310 <inflateReset2@plt>:
    2310:	ff 25 4a ae 21 00    	jmpq   *0x21ae4a(%rip)        # 21d160 <inflateReset2@@ZLIB_1.2.3.4+0x211a88>
    2316:	68 29 00 00 00       	pushq  $0x29
    231b:	e9 50 fd ff ff       	jmpq   2070 <.plt>

0000000000002320 <strerror@plt>:
    2320:	ff 25 42 ae 21 00    	jmpq   *0x21ae42(%rip)        # 21d168 <strerror@GLIBC_2.2.5>
    2326:	68 2a 00 00 00       	pushq  $0x2a
    232b:	e9 40 fd ff ff       	jmpq   2070 <.plt>

0000000000002330 <adler32_z@plt>:
    2330:	ff 25 3a ae 21 00    	jmpq   *0x21ae3a(%rip)        # 21d170 <adler32_z@@ZLIB_1.2.9+0x21ad46>
    2336:	68 2b 00 00 00       	pushq  $0x2b
    233b:	e9 30 fd ff ff       	jmpq   2070 <.plt>

Disassembly of section .plt.got:

0000000000002340 <__cxa_finalize@plt>:
    2340:	ff 25 b2 ac 21 00    	jmpq   *0x21acb2(%rip)        # 21cff8 <__cxa_finalize@GLIBC_2.2.5>
    2346:	66 90                	xchg   %ax,%ax

Disassembly of section .text:

0000000000002350 <deregister_tm_clones>:
    2350:	48 8d 3d 29 ae 21 00 	lea    0x21ae29(%rip),%rdi        # 21d180 <completed.7698>
    2357:	55                   	push   %rbp
    2358:	48 8d 05 21 ae 21 00 	lea    0x21ae21(%rip),%rax        # 21d180 <completed.7698>
    235f:	48 39 f8             	cmp    %rdi,%rax
    2362:	48 89 e5             	mov    %rsp,%rbp
    2365:	74 19                	je     2380 <deregister_tm_clones+0x30>
    2367:	48 8b 05 72 ac 21 00 	mov    0x21ac72(%rip),%rax        # 21cfe0 <_ITM_deregisterTMCloneTable>
    236e:	48 85 c0             	test   %rax,%rax
    2371:	74 0d                	je     2380 <deregister_tm_clones+0x30>
    2373:	5d                   	pop    %rbp
    2374:	ff e0                	jmpq   *%rax
    2376:	66 2e 0f 1f 84 00 00 	nopw   %cs:0x0(%rax,%rax,1)
    237d:	00 00 00 
    2380:	5d                   	pop    %rbp
    2381:	c3                   	retq   
    2382:	0f 1f 40 00          	nopl   0x0(%rax)
    2386:	66 2e 0f 1f 84 00 00 	nopw   %cs:0x0(%rax,%rax,1)
    238d:	00 00 00 

0000000000002390 <register_tm_clones>:
    2390:	48 8d 3d e9 ad 21 00 	lea    0x21ade9(%rip),%rdi        # 21d180 <completed.7698>
    2397:	48 8d 35 e2 ad 21 00 	lea    0x21ade2(%rip),%rsi        # 21d180 <completed.7698>
    239e:	55                   	push   %rbp
    239f:	48 29 fe             	sub    %rdi,%rsi
    23a2:	48 89 e5             	mov    %rsp,%rbp
    23a5:	48 c1 fe 03          	sar    $0x3,%rsi
    23a9:	48 89 f0             	mov    %rsi,%rax
    23ac:	48 c1 e8 3f          	shr    $0x3f,%rax
    23b0:	48 01 c6             	add    %rax,%rsi
    23b3:	48 d1 fe             	sar    %rsi
    23b6:	74 18                	je     23d0 <register_tm_clones+0x40>
    23b8:	48 8b 05 31 ac 21 00 	mov    0x21ac31(%rip),%rax        # 21cff0 <_ITM_registerTMCloneTable>
    23bf:	48 85 c0             	test   %rax,%rax
    23c2:	74 0c                	je     23d0 <register_tm_clones+0x40>
    23c4:	5d                   	pop    %rbp
    23c5:	ff e0                	jmpq   *%rax
    23c7:	66 0f 1f 84 00 00 00 	nopw   0x0(%rax,%rax,1)
    23ce:	00 00 
    23d0:	5d                   	pop    %rbp
    23d1:	c3                   	retq   
    23d2:	0f 1f 40 00          	nopl   0x0(%rax)
    23d6:	66 2e 0f 1f 84 00 00 	nopw   %cs:0x0(%rax,%rax,1)
    23dd:	00 00 00 

00000000000023e0 <__do_global_dtors_aux>:
    23e0:	80 3d 99 ad 21 00 00 	cmpb   $0x0,0x21ad99(%rip)        # 21d180 <completed.7698>
    23e7:	75 2f                	jne    2418 <__do_global_dtors_aux+0x38>
    23e9:	48 83 3d 07 ac 21 00 	cmpq   $0x0,0x21ac07(%rip)        # 21cff8 <__cxa_finalize@GLIBC_2.2.5>
    23f0:	00 
    23f1:	55                   	push   %rbp
    23f2:	48 89 e5             	mov    %rsp,%rbp
    23f5:	74 0c                	je     2403 <__do_global_dtors_aux+0x23>
    23f7:	48 8b 3d 7a ad 21 00 	mov    0x21ad7a(%rip),%rdi        # 21d178 <__dso_handle>
    23fe:	e8 3d ff ff ff       	callq  2340 <__cxa_finalize@plt>
    2403:	e8 48 ff ff ff       	callq  2350 <deregister_tm_clones>
    2408:	c6 05 71 ad 21 00 01 	movb   $0x1,0x21ad71(%rip)        # 21d180 <completed.7698>
    240f:	5d                   	pop    %rbp
    2410:	c3                   	retq   
    2411:	0f 1f 80 00 00 00 00 	nopl   0x0(%rax)
    2418:	f3 c3                	repz retq 
    241a:	66 0f 1f 44 00 00    	nopw   0x0(%rax,%rax,1)

0000000000002420 <frame_dummy>:
    2420:	55                   	push   %rbp
    2421:	48 89 e5             	mov    %rsp,%rbp
    2424:	5d                   	pop    %rbp
    2425:	e9 66 ff ff ff       	jmpq   2390 <register_tm_clones>

000000000000242a <adler32_z>:
    242a:	55                   	push   %rbp
    242b:	48 89 e5             	mov    %rsp,%rbp
    242e:	48 89 7d e8          	mov    %rdi,-0x18(%rbp)
    2432:	48 89 75 e0          	mov    %rsi,-0x20(%rbp)
    2436:	48 89 55 d8          	mov    %rdx,-0x28(%rbp)
    243a:	48 8b 45 e8          	mov    -0x18(%rbp),%rax
    243e:	48 c1 e8 10          	shr    $0x10,%rax
    2442:	25 ff ff 00 00       	and    $0xffff,%eax
    2447:	48 89 45 f8          	mov    %rax,-0x8(%rbp)
    244b:	48 81 65 e8 ff ff 00 	andq   $0xffff,-0x18(%rbp)
    2452:	00 
    2453:	48 83 7d d8 01       	cmpq   $0x1,-0x28(%rbp)
    2458:	75 4b                	jne    24a5 <adler32_z+0x7b>
    245a:	48 8b 45 e0          	mov    -0x20(%rbp),%rax
    245e:	0f b6 00             	movzbl (%rax),%eax
    2461:	0f b6 c0             	movzbl %al,%eax
    2464:	48 01 45 e8          	add    %rax,-0x18(%rbp)
    2468:	48 81 7d e8 f0 ff 00 	cmpq   $0xfff0,-0x18(%rbp)
    246f:	00 
    2470:	76 08                	jbe    247a <adler32_z+0x50>
    2472:	48 81 6d e8 f1 ff 00 	subq   $0xfff1,-0x18(%rbp)
    2479:	00 
    247a:	48 8b 45 e8          	mov    -0x18(%rbp),%rax
    247e:	48 01 45 f8          	add    %rax,-0x8(%rbp)
    2482:	48 81 7d f8 f0 ff 00 	cmpq   $0xfff0,-0x8(%rbp)
    2489:	00 
    248a:	76 08                	jbe    2494 <adler32_z+0x6a>
    248c:	48 81 6d f8 f1 ff 00 	subq   $0xfff1,-0x8(%rbp)
    2493:	00 
    2494:	48 8b 45 f8          	mov    -0x8(%rbp),%rax
    2498:	48 c1 e0 10          	shl    $0x10,%rax
    249c:	48 0b 45 e8          	or     -0x18(%rbp),%rax
    24a0:	e9 43 05 00 00       	jmpq   29e8 <adler32_z+0x5be>
    24a5:	48 83 7d e0 00       	cmpq   $0x0,-0x20(%rbp)
    24aa:	75 0a                	jne    24b6 <adler32_z+0x8c>
    24ac:	b8 01 00 00 00       	mov    $0x1,%eax
    24b1:	e9 32 05 00 00       	jmpq   29e8 <adler32_z+0x5be>
    24b6:	48 83 7d d8 0f       	cmpq   $0xf,-0x28(%rbp)
    24bb:	0f 87 b1 02 00 00    	ja     2772 <adler32_z+0x348>
    24c1:	eb 1e                	jmp    24e1 <adler32_z+0xb7>
    24c3:	48 8b 45 e0          	mov    -0x20(%rbp),%rax
    24c7:	48 8d 50 01          	lea    0x1(%rax),%rdx
    24cb:	48 89 55 e0          	mov    %rdx,-0x20(%rbp)
    24cf:	0f b6 00             	movzbl (%rax),%eax
    24d2:	0f b6 c0             	movzbl %al,%eax
    24d5:	48 01 45 e8          	add    %rax,-0x18(%rbp)
    24d9:	48 8b 45 e8          	mov    -0x18(%rbp),%rax
    24dd:	48 01 45 f8          	add    %rax,-0x8(%rbp)
    24e1:	48 8b 45 d8          	mov    -0x28(%rbp),%rax
    24e5:	48 8d 50 ff          	lea    -0x1(%rax),%rdx
    24e9:	48 89 55 d8          	mov    %rdx,-0x28(%rbp)
    24ed:	48 85 c0             	test   %rax,%rax
    24f0:	75 d1                	jne    24c3 <adler32_z+0x99>
    24f2:	48 81 7d e8 f0 ff 00 	cmpq   $0xfff0,-0x18(%rbp)
    24f9:	00 
    24fa:	76 08                	jbe    2504 <adler32_z+0xda>
    24fc:	48 81 6d e8 f1 ff 00 	subq   $0xfff1,-0x18(%rbp)
    2503:	00 
    2504:	48 8b 4d f8          	mov    -0x8(%rbp),%rcx
    2508:	48 ba cd c5 2f 0d e1 	movabs $0xf00e10d2fc5cd,%rdx
    250f:	00 0f 00 
    2512:	48 89 c8             	mov    %rcx,%rax
    2515:	48 f7 e2             	mul    %rdx
    2518:	48 89 c8             	mov    %rcx,%rax
    251b:	48 29 d0             	sub    %rdx,%rax
    251e:	48 d1 e8             	shr    %rax
    2521:	48 01 d0             	add    %rdx,%rax
    2524:	48 c1 e8 0f          	shr    $0xf,%rax
    2528:	48 69 c0 f1 ff 00 00 	imul   $0xfff1,%rax,%rax
    252f:	48 29 c1             	sub    %rax,%rcx
    2532:	48 89 c8             	mov    %rcx,%rax
    2535:	48 89 45 f8          	mov    %rax,-0x8(%rbp)
    2539:	48 8b 45 f8          	mov    -0x8(%rbp),%rax
    253d:	48 c1 e0 10          	shl    $0x10,%rax
    2541:	48 0b 45 e8          	or     -0x18(%rbp),%rax
    2545:	e9 9e 04 00 00       	jmpq   29e8 <adler32_z+0x5be>
    254a:	48 81 6d d8 b0 15 00 	subq   $0x15b0,-0x28(%rbp)
    2551:	00 
    2552:	c7 45 f4 5b 01 00 00 	movl   $0x15b,-0xc(%rbp)
    2559:	48 8b 45 e0          	mov    -0x20(%rbp),%rax
    255d:	0f b6 00             	movzbl (%rax),%eax
    2560:	0f b6 c0             	movzbl %al,%eax
    2563:	48 01 45 e8          	add    %rax,-0x18(%rbp)
    2567:	48 8b 45 e8          	mov    -0x18(%rbp),%rax
    256b:	48 01 45 f8          	add    %rax,-0x8(%rbp)
    256f:	48 8b 45 e0          	mov    -0x20(%rbp),%rax
    2573:	48 83 c0 01          	add    $0x1,%rax
    2577:	0f b6 00             	movzbl (%rax),%eax
    257a:	0f b6 c0             	movzbl %al,%eax
    257d:	48 01 45 e8          	add    %rax,-0x18(%rbp)
    2581:	48 8b 45 e8          	mov    -0x18(%rbp),%rax
    2585:	48 01 45 f8          	add    %rax,-0x8(%rbp)
    2589:	48 8b 45 e0          	mov    -0x20(%rbp),%rax
    258d:	48 83 c0 02          	add    $0x2,%rax
    2591:	0f b6 00             	movzbl (%rax),%eax
    2594:	0f b6 c0             	movzbl %al,%eax
    2597:	48 01 45 e8          	add    %rax,-0x18(%rbp)
    259b:	48 8b 45 e8          	mov    -0x18(%rbp),%rax
    259f:	48 01 45 f8          	add    %rax,-0x8(%rbp)
    25a3:	48 8b 45 e0          	mov    -0x20(%rbp),%rax
    25a7:	48 83 c0 03          	add    $0x3,%rax
    25ab:	0f b6 00             	movzbl (%rax),%eax
    25ae:	0f b6 c0             	movzbl %al,%eax
    25b1:	48 01 45 e8          	add    %rax,-0x18(%rbp)
    25b5:	48 8b 45 e8          	mov    -0x18(%rbp),%rax
    25b9:	48 01 45 f8          	add    %rax,-0x8(%rbp)
    25bd:	48 8b 45 e0          	mov    -0x20(%rbp),%rax
    25c1:	48 83 c0 04          	add    $0x4,%rax
    25c5:	0f b6 00             	movzbl (%rax),%eax
    25c8:	0f b6 c0             	movzbl %al,%eax
    25cb:	48 01 45 e8          	add    %rax,-0x18(%rbp)
    25cf:	48 8b 45 e8          	mov    -0x18(%rbp),%rax
    25d3:	48 01 45 f8          	add    %rax,-0x8(%rbp)
    25d7:	48 8b 45 e0          	mov    -0x20(%rbp),%rax
    25db:	48 83 c0 05          	add    $0x5,%rax
    25df:	0f b6 00             	movzbl (%rax),%eax
    25e2:	0f b6 c0             	movzbl %al,%eax
    25e5:	48 01 45 e8          	add    %rax,-0x18(%rbp)
    25e9:	48 8b 45 e8          	mov    -0x18(%rbp),%rax
    25ed:	48 01 45 f8          	add    %rax,-0x8(%rbp)
    25f1:	48 8b 45 e0          	mov    -0x20(%rbp),%rax
    25f5:	48 83 c0 06          	add    $0x6,%rax
    25f9:	0f b6 00             	movzbl (%rax),%eax
    25fc:	0f b6 c0             	movzbl %al,%eax
    25ff:	48 01 45 e8          	add    %rax,-0x18(%rbp)
    2603:	48 8b 45 e8          	mov    -0x18(%rbp),%rax
    2607:	48 01 45 f8          	add    %rax,-0x8(%rbp)
    260b:	48 8b 45 e0          	mov    -0x20(%rbp),%rax
    260f:	48 83 c0 07          	add    $0x7,%rax
    2613:	0f b6 00             	movzbl (%rax),%eax
    2616:	0f b6 c0             	movzbl %al,%eax
    2619:	48 01 45 e8          	add    %rax,-0x18(%rbp)
    261d:	48 8b 45 e8          	mov    -0x18(%rbp),%rax
    2621:	48 01 45 f8          	add    %rax,-0x8(%rbp)
    2625:	48 8b 45 e0          	mov    -0x20(%rbp),%rax
    2629:	48 83 c0 08          	add    $0x8,%rax
    262d:	0f b6 00             	movzbl (%rax),%eax
    2630:	0f b6 c0             	movzbl %al,%eax
    2633:	48 01 45 e8          	add    %rax,-0x18(%rbp)
    2637:	48 8b 45 e8          	mov    -0x18(%rbp),%rax
    263b:	48 01 45 f8          	add    %rax,-0x8(%rbp)
    263f:	48 8b 45 e0          	mov    -0x20(%rbp),%rax
    2643:	48 83 c0 09          	add    $0x9,%rax
    2647:	0f b6 00             	movzbl (%rax),%eax
    264a:	0f b6 c0             	movzbl %al,%eax
    264d:	48 01 45 e8          	add    %rax,-0x18(%rbp)
    2651:	48 8b 45 e8          	mov    -0x18(%rbp),%rax
    2655:	48 01 45 f8          	add    %rax,-0x8(%rbp)
    2659:	48 8b 45 e0          	mov    -0x20(%rbp),%rax
    265d:	48 83 c0 0a          	add    $0xa,%rax
    2661:	0f b6 00             	movzbl (%rax),%eax
    2664:	0f b6 c0             	movzbl %al,%eax
    2667:	48 01 45 e8          	add    %rax,-0x18(%rbp)
    266b:	48 8b 45 e8          	mov    -0x18(%rbp),%rax
    266f:	48 01 45 f8          	add    %rax,-0x8(%rbp)
    2673:	48 8b 45 e0          	mov    -0x20(%rbp),%rax
    2677:	48 83 c0 0b          	add    $0xb,%rax
    267b:	0f b6 00             	movzbl (%rax),%eax
    267e:	0f b6 c0             	movzbl %al,%eax
    2681:	48 01 45 e8          	add    %rax,-0x18(%rbp)
    2685:	48 8b 45 e8          	mov    -0x18(%rbp),%rax
    2689:	48 01 45 f8          	add    %rax,-0x8(%rbp)
    268d:	48 8b 45 e0          	mov    -0x20(%rbp),%rax
    2691:	48 83 c0 0c          	add    $0xc,%rax
    2695:	0f b6 00             	movzbl (%rax),%eax
    2698:	0f b6 c0             	movzbl %al,%eax
    269b:	48 01 45 e8          	add    %rax,-0x18(%rbp)
    269f:	48 8b 45 e8          	mov    -0x18(%rbp),%rax
    26a3:	48 01 45 f8          	add    %rax,-0x8(%rbp)
    26a7:	48 8b 45 e0          	mov    -0x20(%rbp),%rax
    26ab:	48 83 c0 0d          	add    $0xd,%rax
    26af:	0f b6 00             	movzbl (%rax),%eax
    26b2:	0f b6 c0             	movzbl %al,%eax
    26b5:	48 01 45 e8          	add    %rax,-0x18(%rbp)
    26b9:	48 8b 45 e8          	mov    -0x18(%rbp),%rax
    26bd:	48 01 45 f8          	add    %rax,-0x8(%rbp)
    26c1:	48 8b 45 e0          	mov    -0x20(%rbp),%rax
    26c5:	48 83 c0 0e          	add    $0xe,%rax
    26c9:	0f b6 00             	movzbl (%rax),%eax
    26cc:	0f b6 c0             	movzbl %al,%eax
    26cf:	48 01 45 e8          	add    %rax,-0x18(%rbp)
    26d3:	48 8b 45 e8          	mov    -0x18(%rbp),%rax
    26d7:	48 01 45 f8          	add    %rax,-0x8(%rbp)
    26db:	48 8b 45 e0          	mov    -0x20(%rbp),%rax
    26df:	48 83 c0 0f          	add    $0xf,%rax
    26e3:	0f b6 00             	movzbl (%rax),%eax
    26e6:	0f b6 c0             	movzbl %al,%eax
    26e9:	48 01 45 e8          	add    %rax,-0x18(%rbp)
    26ed:	48 8b 45 e8          	mov    -0x18(%rbp),%rax
    26f1:	48 01 45 f8          	add    %rax,-0x8(%rbp)
    26f5:	48 83 45 e0 10       	addq   $0x10,-0x20(%rbp)
    26fa:	83 6d f4 01          	subl   $0x1,-0xc(%rbp)
    26fe:	83 7d f4 00          	cmpl   $0x0,-0xc(%rbp)
    2702:	0f 85 51 fe ff ff    	jne    2559 <adler32_z+0x12f>
    2708:	48 8b 4d e8          	mov    -0x18(%rbp),%rcx
    270c:	48 ba cd c5 2f 0d e1 	movabs $0xf00e10d2fc5cd,%rdx
    2713:	00 0f 00 
    2716:	48 89 c8             	mov    %rcx,%rax
    2719:	48 f7 e2             	mul    %rdx
    271c:	48 89 c8             	mov    %rcx,%rax
    271f:	48 29 d0             	sub    %rdx,%rax
    2722:	48 d1 e8             	shr    %rax
    2725:	48 01 d0             	add    %rdx,%rax
    2728:	48 c1 e8 0f          	shr    $0xf,%rax
    272c:	48 69 c0 f1 ff 00 00 	imul   $0xfff1,%rax,%rax
    2733:	48 29 c1             	sub    %rax,%rcx
    2736:	48 89 c8             	mov    %rcx,%rax
    2739:	48 89 45 e8          	mov    %rax,-0x18(%rbp)
    273d:	48 8b 4d f8          	mov    -0x8(%rbp),%rcx
    2741:	48 ba cd c5 2f 0d e1 	movabs $0xf00e10d2fc5cd,%rdx
    2748:	00 0f 00 
    274b:	48 89 c8             	mov    %rcx,%rax
    274e:	48 f7 e2             	mul    %rdx
    2751:	48 89 c8             	mov    %rcx,%rax
    2754:	48 29 d0             	sub    %rdx,%rax
    2757:	48 d1 e8             	shr    %rax
    275a:	48 01 d0             	add    %rdx,%rax
    275d:	48 c1 e8 0f          	shr    $0xf,%rax
    2761:	48 69 c0 f1 ff 00 00 	imul   $0xfff1,%rax,%rax
    2768:	48 29 c1             	sub    %rax,%rcx
    276b:	48 89 c8             	mov    %rcx,%rax
    276e:	48 89 45 f8          	mov    %rax,-0x8(%rbp)
    2772:	48 81 7d d8 af 15 00 	cmpq   $0x15af,-0x28(%rbp)
    2779:	00 
    277a:	0f 87 ca fd ff ff    	ja     254a <adler32_z+0x120>
    2780:	48 83 7d d8 00       	cmpq   $0x0,-0x28(%rbp)
    2785:	0f 84 51 02 00 00    	je     29dc <adler32_z+0x5b2>
    278b:	e9 a6 01 00 00       	jmpq   2936 <adler32_z+0x50c>
    2790:	48 83 6d d8 10       	subq   $0x10,-0x28(%rbp)
    2795:	48 8b 45 e0          	mov    -0x20(%rbp),%rax
    2799:	0f b6 00             	movzbl (%rax),%eax
    279c:	0f b6 c0             	movzbl %al,%eax
    279f:	48 01 45 e8          	add    %rax,-0x18(%rbp)
    27a3:	48 8b 45 e8          	mov    -0x18(%rbp),%rax
    27a7:	48 01 45 f8          	add    %rax,-0x8(%rbp)
    27ab:	48 8b 45 e0          	mov    -0x20(%rbp),%rax
    27af:	48 83 c0 01          	add    $0x1,%rax
    27b3:	0f b6 00             	movzbl (%rax),%eax
    27b6:	0f b6 c0             	movzbl %al,%eax
    27b9:	48 01 45 e8          	add    %rax,-0x18(%rbp)
    27bd:	48 8b 45 e8          	mov    -0x18(%rbp),%rax
    27c1:	48 01 45 f8          	add    %rax,-0x8(%rbp)
    27c5:	48 8b 45 e0          	mov    -0x20(%rbp),%rax
    27c9:	48 83 c0 02          	add    $0x2,%rax
    27cd:	0f b6 00             	movzbl (%rax),%eax
    27d0:	0f b6 c0             	movzbl %al,%eax
    27d3:	48 01 45 e8          	add    %rax,-0x18(%rbp)
    27d7:	48 8b 45 e8          	mov    -0x18(%rbp),%rax
    27db:	48 01 45 f8          	add    %rax,-0x8(%rbp)
    27df:	48 8b 45 e0          	mov    -0x20(%rbp),%rax
    27e3:	48 83 c0 03          	add    $0x3,%rax
    27e7:	0f b6 00             	movzbl (%rax),%eax
    27ea:	0f b6 c0             	movzbl %al,%eax
    27ed:	48 01 45 e8          	add    %rax,-0x18(%rbp)
    27f1:	48 8b 45 e8          	mov    -0x18(%rbp),%rax
    27f5:	48 01 45 f8          	add    %rax,-0x8(%rbp)
    27f9:	48 8b 45 e0          	mov    -0x20(%rbp),%rax
    27fd:	48 83 c0 04          	add    $0x4,%rax
    2801:	0f b6 00             	movzbl (%rax),%eax
    2804:	0f b6 c0             	movzbl %al,%eax
    2807:	48 01 45 e8          	add    %rax,-0x18(%rbp)
    280b:	48 8b 45 e8          	mov    -0x18(%rbp),%rax
    280f:	48 01 45 f8          	add    %rax,-0x8(%rbp)
    2813:	48 8b 45 e0          	mov    -0x20(%rbp),%rax
    2817:	48 83 c0 05          	add    $0x5,%rax
    281b:	0f b6 00             	movzbl (%rax),%eax
    281e:	0f b6 c0             	movzbl %al,%eax
    2821:	48 01 45 e8          	add    %rax,-0x18(%rbp)
    2825:	48 8b 45 e8          	mov    -0x18(%rbp),%rax
    2829:	48 01 45 f8          	add    %rax,-0x8(%rbp)
    282d:	48 8b 45 e0          	mov    -0x20(%rbp),%rax
    2831:	48 83 c0 06          	add    $0x6,%rax
    2835:	0f b6 00             	movzbl (%rax),%eax
    2838:	0f b6 c0             	movzbl %al,%eax
    283b:	48 01 45 e8          	add    %rax,-0x18(%rbp)
    283f:	48 8b 45 e8          	mov    -0x18(%rbp),%rax
    2843:	48 01 45 f8          	add    %rax,-0x8(%rbp)
    2847:	48 8b 45 e0          	mov    -0x20(%rbp),%rax
    284b:	48 83 c0 07          	add    $0x7,%rax
    284f:	0f b6 00             	movzbl (%rax),%eax
    2852:	0f b6 c0             	movzbl %al,%eax
    2855:	48 01 45 e8          	add    %rax,-0x18(%rbp)
    2859:	48 8b 45 e8          	mov    -0x18(%rbp),%rax
    285d:	48 01 45 f8          	add    %rax,-0x8(%rbp)
    2861:	48 8b 45 e0          	mov    -0x20(%rbp),%rax
    2865:	48 83 c0 08          	add    $0x8,%rax
    2869:	0f b6 00             	movzbl (%rax),%eax
    286c:	0f b6 c0             	movzbl %al,%eax
    286f:	48 01 45 e8          	add    %rax,-0x18(%rbp)
    2873:	48 8b 45 e8          	mov    -0x18(%rbp),%rax
    2877:	48 01 45 f8          	add    %rax,-0x8(%rbp)
    287b:	48 8b 45 e0          	mov    -0x20(%rbp),%rax
    287f:	48 83 c0 09          	add    $0x9,%rax
    2883:	0f b6 00             	movzbl (%rax),%eax
    2886:	0f b6 c0             	movzbl %al,%eax
    2889:	48 01 45 e8          	add    %rax,-0x18(%rbp)
    288d:	48 8b 45 e8          	mov    -0x18(%rbp),%rax
    2891:	48 01 45 f8          	add    %rax,-0x8(%rbp)
    2895:	48 8b 45 e0          	mov    -0x20(%rbp),%rax
    2899:	48 83 c0 0a          	add    $0xa,%rax
    289d:	0f b6 00             	movzbl (%rax),%eax
    28a0:	0f b6 c0             	movzbl %al,%eax
    28a3:	48 01 45 e8          	add    %rax,-0x18(%rbp)
    28a7:	48 8b 45 e8          	mov    -0x18(%rbp),%rax
    28ab:	48 01 45 f8          	add    %rax,-0x8(%rbp)
    28af:	48 8b 45 e0          	mov    -0x20(%rbp),%rax
    28b3:	48 83 c0 0b          	add    $0xb,%rax
    28b7:	0f b6 00             	movzbl (%rax),%eax
    28ba:	0f b6 c0             	movzbl %al,%eax
    28bd:	48 01 45 e8          	add    %rax,-0x18(%rbp)
    28c1:	48 8b 45 e8          	mov    -0x18(%rbp),%rax
    28c5:	48 01 45 f8          	add    %rax,-0x8(%rbp)
    28c9:	48 8b 45 e0          	mov    -0x20(%rbp),%rax
    28cd:	48 83 c0 0c          	add    $0xc,%rax
    28d1:	0f b6 00             	movzbl (%rax),%eax
    28d4:	0f b6 c0             	movzbl %al,%eax
    28d7:	48 01 45 e8          	add    %rax,-0x18(%rbp)
    28db:	48 8b 45 e8          	mov    -0x18(%rbp),%rax
    28df:	48 01 45 f8          	add    %rax,-0x8(%rbp)
    28e3:	48 8b 45 e0          	mov    -0x20(%rbp),%rax
    28e7:	48 83 c0 0d          	add    $0xd,%rax
    28eb:	0f b6 00             	movzbl (%rax),%eax
    28ee:	0f b6 c0             	movzbl %al,%eax
    28f1:	48 01 45 e8          	add    %rax,-0x18(%rbp)
    28f5:	48 8b 45 e8          	mov    -0x18(%rbp),%rax
    28f9:	48 01 45 f8          	add    %rax,-0x8(%rbp)
    28fd:	48 8b 45 e0          	mov    -0x20(%rbp),%rax
    2901:	48 83 c0 0e          	add    $0xe,%rax
    2905:	0f b6 00             	movzbl (%rax),%eax
    2908:	0f b6 c0             	movzbl %al,%eax
    290b:	48 01 45 e8          	add    %rax,-0x18(%rbp)
    290f:	48 8b 45 e8          	mov    -0x18(%rbp),%rax
    2913:	48 01 45 f8          	add    %rax,-0x8(%rbp)
    2917:	48 8b 45 e0          	mov    -0x20(%rbp),%rax
    291b:	48 83 c0 0f          	add    $0xf,%rax
    291f:	0f b6 00             	movzbl (%rax),%eax
    2922:	0f b6 c0             	movzbl %al,%eax
    2925:	48 01 45 e8          	add    %rax,-0x18(%rbp)
    2929:	48 8b 45 e8          	mov    -0x18(%rbp),%rax
    292d:	48 01 45 f8          	add    %rax,-0x8(%rbp)
    2931:	48 83 45 e0 10       	addq   $0x10,-0x20(%rbp)
    2936:	48 83 7d d8 0f       	cmpq   $0xf,-0x28(%rbp)
    293b:	0f 87 4f fe ff ff    	ja     2790 <adler32_z+0x366>
    2941:	eb 1e                	jmp    2961 <adler32_z+0x537>
    2943:	48 8b 45 e0          	mov    -0x20(%rbp),%rax
    2947:	48 8d 50 01          	lea    0x1(%rax),%rdx
    294b:	48 89 55 e0          	mov    %rdx,-0x20(%rbp)
    294f:	0f b6 00             	movzbl (%rax),%eax
    2952:	0f b6 c0             	movzbl %al,%eax
    2955:	48 01 45 e8          	add    %rax,-0x18(%rbp)
    2959:	48 8b 45 e8          	mov    -0x18(%rbp),%rax
    295d:	48 01 45 f8          	add    %rax,-0x8(%rbp)
    2961:	48 8b 45 d8          	mov    -0x28(%rbp),%rax
    2965:	48 8d 50 ff          	lea    -0x1(%rax),%rdx
    2969:	48 89 55 d8          	mov    %rdx,-0x28(%rbp)
    296d:	48 85 c0             	test   %rax,%rax
    2970:	75 d1                	jne    2943 <adler32_z+0x519>
    2972:	48 8b 4d e8          	mov    -0x18(%rbp),%rcx
    2976:	48 ba cd c5 2f 0d e1 	movabs $0xf00e10d2fc5cd,%rdx
    297d:	00 0f 00 
    2980:	48 89 c8             	mov    %rcx,%rax
    2983:	48 f7 e2             	mul    %rdx
    2986:	48 89 c8             	mov    %rcx,%rax
    2989:	48 29 d0             	sub    %rdx,%rax
    298c:	48 d1 e8             	shr    %rax
    298f:	48 01 d0             	add    %rdx,%rax
    2992:	48 c1 e8 0f          	shr    $0xf,%rax
    2996:	48 69 c0 f1 ff 00 00 	imul   $0xfff1,%rax,%rax
    299d:	48 29 c1             	sub    %rax,%rcx
    29a0:	48 89 c8             	mov    %rcx,%rax
    29a3:	48 89 45 e8          	mov    %rax,-0x18(%rbp)
    29a7:	48 8b 4d f8          	mov    -0x8(%rbp),%rcx
    29ab:	48 ba cd c5 2f 0d e1 	movabs $0xf00e10d2fc5cd,%rdx
    29b2:	00 0f 00 
    29b5:	48 89 c8             	mov    %rcx,%rax
    29b8:	48 f7 e2             	mul    %rdx
    29bb:	48 89 c8             	mov    %rcx,%rax
    29be:	48 29 d0             	sub    %rdx,%rax
    29c1:	48 d1 e8             	shr    %rax
    29c4:	48 01 d0             	add    %rdx,%rax
    29c7:	48 c1 e8 0f          	shr    $0xf,%rax
    29cb:	48 69 c0 f1 ff 00 00 	imul   $0xfff1,%rax,%rax
    29d2:	48 29 c1             	sub    %rax,%rcx
    29d5:	48 89 c8             	mov    %rcx,%rax
    29d8:	48 89 45 f8          	mov    %rax,-0x8(%rbp)
    29dc:	48 8b 45 f8          	mov    -0x8(%rbp),%rax
    29e0:	48 c1 e0 10          	shl    $0x10,%rax
    29e4:	48 0b 45 e8          	or     -0x18(%rbp),%rax
    29e8:	5d                   	pop    %rbp
    29e9:	c3                   	retq   

00000000000029ea <adler32>:
    29ea:	55                   	push   %rbp
    29eb:	48 89 e5             	mov    %rsp,%rbp
    29ee:	48 83 ec 20          	sub    $0x20,%rsp
    29f2:	48 89 7d f8          	mov    %rdi,-0x8(%rbp)
    29f6:	48 89 75 f0          	mov    %rsi,-0x10(%rbp)
    29fa:	89 55 ec             	mov    %edx,-0x14(%rbp)
    29fd:	8b 55 ec             	mov    -0x14(%rbp),%edx
    2a00:	48 8b 4d f0          	mov    -0x10(%rbp),%rcx
    2a04:	48 8b 45 f8          	mov    -0x8(%rbp),%rax
    2a08:	48 89 ce             	mov    %rcx,%rsi
    2a0b:	48 89 c7             	mov    %rax,%rdi
    2a0e:	e8 1d f9 ff ff       	callq  2330 <adler32_z@plt>
    2a13:	c9                   	leaveq 
    2a14:	c3                   	retq   

0000000000002a15 <adler32_combine_>:
    2a15:	55                   	push   %rbp
    2a16:	48 89 e5             	mov    %rsp,%rbp
    2a19:	48 89 7d d8          	mov    %rdi,-0x28(%rbp)
    2a1d:	48 89 75 d0          	mov    %rsi,-0x30(%rbp)
    2a21:	48 89 55 c8          	mov    %rdx,-0x38(%rbp)
    2a25:	48 83 7d c8 00       	cmpq   $0x0,-0x38(%rbp)
    2a2a:	79 0a                	jns    2a36 <adler32_combine_+0x21>
    2a2c:	b8 ff ff ff ff       	mov    $0xffffffff,%eax
    2a31:	e9 2f 01 00 00       	jmpq   2b65 <adler32_combine_+0x150>
    2a36:	48 8b 4d c8          	mov    -0x38(%rbp),%rcx
    2a3a:	48 ba e7 e2 97 86 70 	movabs $0x800780708697e2e7,%rdx
    2a41:	80 07 80 
    2a44:	48 89 c8             	mov    %rcx,%rax
    2a47:	48 f7 ea             	imul   %rdx
    2a4a:	48 8d 04 0a          	lea    (%rdx,%rcx,1),%rax
    2a4e:	48 c1 f8 0f          	sar    $0xf,%rax
    2a52:	48 89 c2             	mov    %rax,%rdx
    2a55:	48 89 c8             	mov    %rcx,%rax
    2a58:	48 c1 f8 3f          	sar    $0x3f,%rax
    2a5c:	48 29 c2             	sub    %rax,%rdx
    2a5f:	48 89 d0             	mov    %rdx,%rax
    2a62:	48 69 c0 f1 ff 00 00 	imul   $0xfff1,%rax,%rax
    2a69:	48 29 c1             	sub    %rax,%rcx
    2a6c:	48 89 c8             	mov    %rcx,%rax
    2a6f:	48 89 45 c8          	mov    %rax,-0x38(%rbp)
    2a73:	48 8b 45 c8          	mov    -0x38(%rbp),%rax
    2a77:	89 45 ec             	mov    %eax,-0x14(%rbp)
    2a7a:	48 8b 45 d8          	mov    -0x28(%rbp),%rax
    2a7e:	0f b7 c0             	movzwl %ax,%eax
    2a81:	48 89 45 f0          	mov    %rax,-0x10(%rbp)
    2a85:	8b 45 ec             	mov    -0x14(%rbp),%eax
    2a88:	48 8b 55 f0          	mov    -0x10(%rbp),%rdx
    2a8c:	48 0f af c2          	imul   %rdx,%rax
    2a90:	48 89 45 f8          	mov    %rax,-0x8(%rbp)
    2a94:	48 8b 4d f8          	mov    -0x8(%rbp),%rcx
    2a98:	48 ba cd c5 2f 0d e1 	movabs $0xf00e10d2fc5cd,%rdx
    2a9f:	00 0f 00 
    2aa2:	48 89 c8             	mov    %rcx,%rax
    2aa5:	48 f7 e2             	mul    %rdx
    2aa8:	48 89 c8             	mov    %rcx,%rax
    2aab:	48 29 d0             	sub    %rdx,%rax
    2aae:	48 d1 e8             	shr    %rax
    2ab1:	48 01 d0             	add    %rdx,%rax
    2ab4:	48 c1 e8 0f          	shr    $0xf,%rax
    2ab8:	48 69 c0 f1 ff 00 00 	imul   $0xfff1,%rax,%rax
    2abf:	48 29 c1             	sub    %rax,%rcx
    2ac2:	48 89 c8             	mov    %rcx,%rax
    2ac5:	48 89 45 f8          	mov    %rax,-0x8(%rbp)
    2ac9:	48 8b 45 d0          	mov    -0x30(%rbp),%rax
    2acd:	0f b7 d0             	movzwl %ax,%edx
    2ad0:	48 8b 45 f0          	mov    -0x10(%rbp),%rax
    2ad4:	48 01 d0             	add    %rdx,%rax
    2ad7:	48 05 f0 ff 00 00    	add    $0xfff0,%rax
    2add:	48 89 45 f0          	mov    %rax,-0x10(%rbp)
    2ae1:	48 8b 45 d8          	mov    -0x28(%rbp),%rax
    2ae5:	48 c1 e8 10          	shr    $0x10,%rax
    2ae9:	0f b7 d0             	movzwl %ax,%edx
    2aec:	48 8b 45 d0          	mov    -0x30(%rbp),%rax
    2af0:	48 c1 e8 10          	shr    $0x10,%rax
    2af4:	0f b7 c0             	movzwl %ax,%eax
    2af7:	48 01 c2             	add    %rax,%rdx
    2afa:	8b 45 ec             	mov    -0x14(%rbp),%eax
    2afd:	48 29 c2             	sub    %rax,%rdx
    2b00:	48 8b 45 f8          	mov    -0x8(%rbp),%rax
    2b04:	48 01 d0             	add    %rdx,%rax
    2b07:	48 05 f1 ff 00 00    	add    $0xfff1,%rax
    2b0d:	48 89 45 f8          	mov    %rax,-0x8(%rbp)
    2b11:	48 81 7d f0 f0 ff 00 	cmpq   $0xfff0,-0x10(%rbp)
    2b18:	00 
    2b19:	76 08                	jbe    2b23 <adler32_combine_+0x10e>
    2b1b:	48 81 6d f0 f1 ff 00 	subq   $0xfff1,-0x10(%rbp)
    2b22:	00 
    2b23:	48 81 7d f0 f0 ff 00 	cmpq   $0xfff0,-0x10(%rbp)
    2b2a:	00 
    2b2b:	76 08                	jbe    2b35 <adler32_combine_+0x120>
    2b2d:	48 81 6d f0 f1 ff 00 	subq   $0xfff1,-0x10(%rbp)
    2b34:	00 
    2b35:	48 81 7d f8 e1 ff 01 	cmpq   $0x1ffe1,-0x8(%rbp)
    2b3c:	00 
    2b3d:	76 08                	jbe    2b47 <adler32_combine_+0x132>
    2b3f:	48 81 6d f8 e2 ff 01 	subq   $0x1ffe2,-0x8(%rbp)
    2b46:	00 
    2b47:	48 81 7d f8 f0 ff 00 	cmpq   $0xfff0,-0x8(%rbp)
    2b4e:	00 
    2b4f:	76 08                	jbe    2b59 <adler32_combine_+0x144>
    2b51:	48 81 6d f8 f1 ff 00 	subq   $0xfff1,-0x8(%rbp)
    2b58:	00 
    2b59:	48 8b 45 f8          	mov    -0x8(%rbp),%rax
    2b5d:	48 c1 e0 10          	shl    $0x10,%rax
    2b61:	48 0b 45 f0          	or     -0x10(%rbp),%rax
    2b65:	5d                   	pop    %rbp
    2b66:	c3                   	retq   

0000000000002b67 <adler32_combine>:
    2b67:	55                   	push   %rbp
    2b68:	48 89 e5             	mov    %rsp,%rbp
    2b6b:	48 83 ec 18          	sub    $0x18,%rsp
    2b6f:	48 89 7d f8          	mov    %rdi,-0x8(%rbp)
    2b73:	48 89 75 f0          	mov    %rsi,-0x10(%rbp)
    2b77:	48 89 55 e8          	mov    %rdx,-0x18(%rbp)
    2b7b:	48 8b 55 e8          	mov    -0x18(%rbp),%rdx
    2b7f:	48 8b 4d f0          	mov    -0x10(%rbp),%rcx
    2b83:	48 8b 45 f8          	mov    -0x8(%rbp),%rax
    2b87:	48 89 ce             	mov    %rcx,%rsi
    2b8a:	48 89 c7             	mov    %rax,%rdi
    2b8d:	e8 83 fe ff ff       	callq  2a15 <adler32_combine_>
    2b92:	c9                   	leaveq 
    2b93:	c3                   	retq   

0000000000002b94 <adler32_combine64>:
    2b94:	55                   	push   %rbp
    2b95:	48 89 e5             	mov    %rsp,%rbp
    2b98:	48 83 ec 18          	sub    $0x18,%rsp
    2b9c:	48 89 7d f8          	mov    %rdi,-0x8(%rbp)
    2ba0:	48 89 75 f0          	mov    %rsi,-0x10(%rbp)
    2ba4:	48 89 55 e8          	mov    %rdx,-0x18(%rbp)
    2ba8:	48 8b 55 e8          	mov    -0x18(%rbp),%rdx
    2bac:	48 8b 4d f0          	mov    -0x10(%rbp),%rcx
    2bb0:	48 8b 45 f8          	mov    -0x8(%rbp),%rax
    2bb4:	48 89 ce             	mov    %rcx,%rsi
    2bb7:	48 89 c7             	mov    %rax,%rdi
    2bba:	e8 56 fe ff ff       	callq  2a15 <adler32_combine_>
    2bbf:	c9                   	leaveq 
    2bc0:	c3                   	retq   

0000000000002bc1 <get_crc_table>:
    2bc1:	55                   	push   %rbp
    2bc2:	48 89 e5             	mov    %rsp,%rbp
    2bc5:	48 8d 05 b4 38 01 00 	lea    0x138b4(%rip),%rax        # 16480 <crc_table>
    2bcc:	5d                   	pop    %rbp
    2bcd:	c3                   	retq   

0000000000002bce <crc32_z>:
    2bce:	55                   	push   %rbp
    2bcf:	48 89 e5             	mov    %rsp,%rbp
    2bd2:	48 83 ec 30          	sub    $0x30,%rsp
    2bd6:	48 89 7d e8          	mov    %rdi,-0x18(%rbp)
    2bda:	48 89 75 e0          	mov    %rsi,-0x20(%rbp)
    2bde:	48 89 55 d8          	mov    %rdx,-0x28(%rbp)
    2be2:	64 48 8b 04 25 28 00 	mov    %fs:0x28,%rax
    2be9:	00 00 
    2beb:	48 89 45 f8          	mov    %rax,-0x8(%rbp)
    2bef:	31 c0                	xor    %eax,%eax
    2bf1:	48 83 7d e0 00       	cmpq   $0x0,-0x20(%rbp)
    2bf6:	75 07                	jne    2bff <crc32_z+0x31>
    2bf8:	b8 00 00 00 00       	mov    $0x0,%eax
    2bfd:	eb 42                	jmp    2c41 <crc32_z+0x73>
    2bff:	c7 45 f4 01 00 00 00 	movl   $0x1,-0xc(%rbp)
    2c06:	48 8d 45 f4          	lea    -0xc(%rbp),%rax
    2c0a:	0f b6 00             	movzbl (%rax),%eax
    2c0d:	84 c0                	test   %al,%al
    2c0f:	74 19                	je     2c2a <crc32_z+0x5c>
    2c11:	48 8b 55 d8          	mov    -0x28(%rbp),%rdx
    2c15:	48 8b 4d e0          	mov    -0x20(%rbp),%rcx
    2c19:	48 8b 45 e8          	mov    -0x18(%rbp),%rax
    2c1d:	48 89 ce             	mov    %rcx,%rsi
    2c20:	48 89 c7             	mov    %rax,%rdi
    2c23:	e8 5a 00 00 00       	callq  2c82 <crc32_little>
    2c28:	eb 17                	jmp    2c41 <crc32_z+0x73>
    2c2a:	48 8b 55 d8          	mov    -0x28(%rbp),%rdx
    2c2e:	48 8b 4d e0          	mov    -0x20(%rbp),%rcx
    2c32:	48 8b 45 e8          	mov    -0x18(%rbp),%rax
    2c36:	48 89 ce             	mov    %rcx,%rsi
    2c39:	48 89 c7             	mov    %rax,%rdi
    2c3c:	e8 33 06 00 00       	callq  3274 <crc32_big>
    2c41:	48 8b 75 f8          	mov    -0x8(%rbp),%rsi
    2c45:	64 48 33 34 25 28 00 	xor    %fs:0x28,%rsi
    2c4c:	00 00 
    2c4e:	74 05                	je     2c55 <crc32_z+0x87>
    2c50:	e8 fb f4 ff ff       	callq  2150 <__stack_chk_fail@plt>
    2c55:	c9                   	leaveq 
    2c56:	c3                   	retq   

0000000000002c57 <crc32>:
    2c57:	55                   	push   %rbp
    2c58:	48 89 e5             	mov    %rsp,%rbp
    2c5b:	48 83 ec 20          	sub    $0x20,%rsp
    2c5f:	48 89 7d f8          	mov    %rdi,-0x8(%rbp)
    2c63:	48 89 75 f0          	mov    %rsi,-0x10(%rbp)
    2c67:	89 55 ec             	mov    %edx,-0x14(%rbp)
    2c6a:	8b 55 ec             	mov    -0x14(%rbp),%edx
    2c6d:	48 8b 4d f0          	mov    -0x10(%rbp),%rcx
    2c71:	48 8b 45 f8          	mov    -0x8(%rbp),%rax
    2c75:	48 89 ce             	mov    %rcx,%rsi
    2c78:	48 89 c7             	mov    %rax,%rdi
    2c7b:	e8 00 f4 ff ff       	callq  2080 <crc32_z@plt>
    2c80:	c9                   	leaveq 
    2c81:	c3                   	retq   

0000000000002c82 <crc32_little>:
    2c82:	55                   	push   %rbp
    2c83:	48 89 e5             	mov    %rsp,%rbp
    2c86:	41 54                	push   %r12
    2c88:	53                   	push   %rbx
    2c89:	48 89 7d e8          	mov    %rdi,-0x18(%rbp)
    2c8d:	48 89 75 e0          	mov    %rsi,-0x20(%rbp)
    2c91:	48 89 55 d8          	mov    %rdx,-0x28(%rbp)
    2c95:	48 8b 45 e8          	mov    -0x18(%rbp),%rax
    2c99:	89 c3                	mov    %eax,%ebx
    2c9b:	f7 d3                	not    %ebx
    2c9d:	eb 39                	jmp    2cd8 <crc32_little+0x56>
    2c9f:	48 8b 45 e0          	mov    -0x20(%rbp),%rax
    2ca3:	48 8d 50 01          	lea    0x1(%rax),%rdx
    2ca7:	48 89 55 e0          	mov    %rdx,-0x20(%rbp)
    2cab:	0f b6 00             	movzbl (%rax),%eax
    2cae:	0f b6 c0             	movzbl %al,%eax
    2cb1:	31 d8                	xor    %ebx,%eax
    2cb3:	0f b6 c0             	movzbl %al,%eax
    2cb6:	89 c0                	mov    %eax,%eax
    2cb8:	48 8d 14 85 00 00 00 	lea    0x0(,%rax,4),%rdx
    2cbf:	00 
    2cc0:	48 8d 05 b9 37 01 00 	lea    0x137b9(%rip),%rax        # 16480 <crc_table>
    2cc7:	8b 04 02             	mov    (%rdx,%rax,1),%eax
    2cca:	c1 eb 08             	shr    $0x8,%ebx
    2ccd:	89 da                	mov    %ebx,%edx
    2ccf:	31 d0                	xor    %edx,%eax
    2cd1:	89 c3                	mov    %eax,%ebx
    2cd3:	48 83 6d d8 01       	subq   $0x1,-0x28(%rbp)
    2cd8:	48 83 7d d8 00       	cmpq   $0x0,-0x28(%rbp)
    2cdd:	74 0c                	je     2ceb <crc32_little+0x69>
    2cdf:	48 8b 45 e0          	mov    -0x20(%rbp),%rax
    2ce3:	83 e0 03             	and    $0x3,%eax
    2ce6:	48 85 c0             	test   %rax,%rax
    2ce9:	75 b4                	jne    2c9f <crc32_little+0x1d>
    2ceb:	4c 8b 65 e0          	mov    -0x20(%rbp),%r12
    2cef:	e9 7d 04 00 00       	jmpq   3171 <crc32_little+0x4ef>
    2cf4:	4c 89 e0             	mov    %r12,%rax
    2cf7:	4c 8d 60 04          	lea    0x4(%rax),%r12
    2cfb:	8b 00                	mov    (%rax),%eax
    2cfd:	31 c3                	xor    %eax,%ebx
    2cff:	0f b6 c3             	movzbl %bl,%eax
    2d02:	89 c0                	mov    %eax,%eax
    2d04:	48 05 00 03 00 00    	add    $0x300,%rax
    2d0a:	48 8d 14 85 00 00 00 	lea    0x0(,%rax,4),%rdx
    2d11:	00 
    2d12:	48 8d 05 67 37 01 00 	lea    0x13767(%rip),%rax        # 16480 <crc_table>
    2d19:	8b 14 02             	mov    (%rdx,%rax,1),%edx
    2d1c:	89 d8                	mov    %ebx,%eax
    2d1e:	c1 e8 08             	shr    $0x8,%eax
    2d21:	0f b6 c0             	movzbl %al,%eax
    2d24:	89 c0                	mov    %eax,%eax
    2d26:	48 05 00 02 00 00    	add    $0x200,%rax
    2d2c:	48 8d 0c 85 00 00 00 	lea    0x0(,%rax,4),%rcx
    2d33:	00 
    2d34:	48 8d 05 45 37 01 00 	lea    0x13745(%rip),%rax        # 16480 <crc_table>
    2d3b:	8b 04 01             	mov    (%rcx,%rax,1),%eax
    2d3e:	89 d1                	mov    %edx,%ecx
    2d40:	31 c1                	xor    %eax,%ecx
    2d42:	89 d8                	mov    %ebx,%eax
    2d44:	c1 e8 10             	shr    $0x10,%eax
    2d47:	0f b6 c0             	movzbl %al,%eax
    2d4a:	89 c0                	mov    %eax,%eax
    2d4c:	48 05 00 01 00 00    	add    $0x100,%rax
    2d52:	48 8d 14 85 00 00 00 	lea    0x0(,%rax,4),%rdx
    2d59:	00 
    2d5a:	48 8d 05 1f 37 01 00 	lea    0x1371f(%rip),%rax        # 16480 <crc_table>
    2d61:	8b 04 02             	mov    (%rdx,%rax,1),%eax
    2d64:	31 c1                	xor    %eax,%ecx
    2d66:	89 d8                	mov    %ebx,%eax
    2d68:	c1 e8 18             	shr    $0x18,%eax
    2d6b:	89 c0                	mov    %eax,%eax
    2d6d:	48 8d 14 85 00 00 00 	lea    0x0(,%rax,4),%rdx
    2d74:	00 
    2d75:	48 8d 05 04 37 01 00 	lea    0x13704(%rip),%rax        # 16480 <crc_table>
    2d7c:	8b 04 02             	mov    (%rdx,%rax,1),%eax
    2d7f:	31 c1                	xor    %eax,%ecx
    2d81:	89 cb                	mov    %ecx,%ebx
    2d83:	4c 89 e0             	mov    %r12,%rax
    2d86:	4c 8d 60 04          	lea    0x4(%rax),%r12
    2d8a:	8b 00                	mov    (%rax),%eax
    2d8c:	31 c3                	xor    %eax,%ebx
    2d8e:	0f b6 c3             	movzbl %bl,%eax
    2d91:	89 c0                	mov    %eax,%eax
    2d93:	48 05 00 03 00 00    	add    $0x300,%rax
    2d99:	48 8d 14 85 00 00 00 	lea    0x0(,%rax,4),%rdx
    2da0:	00 
    2da1:	48 8d 05 d8 36 01 00 	lea    0x136d8(%rip),%rax        # 16480 <crc_table>
    2da8:	8b 14 02             	mov    (%rdx,%rax,1),%edx
    2dab:	89 d8                	mov    %ebx,%eax
    2dad:	c1 e8 08             	shr    $0x8,%eax
    2db0:	0f b6 c0             	movzbl %al,%eax
    2db3:	89 c0                	mov    %eax,%eax
    2db5:	48 05 00 02 00 00    	add    $0x200,%rax
    2dbb:	48 8d 0c 85 00 00 00 	lea    0x0(,%rax,4),%rcx
    2dc2:	00 
    2dc3:	48 8d 05 b6 36 01 00 	lea    0x136b6(%rip),%rax        # 16480 <crc_table>
    2dca:	8b 04 01             	mov    (%rcx,%rax,1),%eax
    2dcd:	89 d1                	mov    %edx,%ecx
    2dcf:	31 c1                	xor    %eax,%ecx
    2dd1:	89 d8                	mov    %ebx,%eax
    2dd3:	c1 e8 10             	shr    $0x10,%eax
    2dd6:	0f b6 c0             	movzbl %al,%eax
    2dd9:	89 c0                	mov    %eax,%eax
    2ddb:	48 05 00 01 00 00    	add    $0x100,%rax
    2de1:	48 8d 14 85 00 00 00 	lea    0x0(,%rax,4),%rdx
    2de8:	00 
    2de9:	48 8d 05 90 36 01 00 	lea    0x13690(%rip),%rax        # 16480 <crc_table>
    2df0:	8b 04 02             	mov    (%rdx,%rax,1),%eax
    2df3:	31 c1                	xor    %eax,%ecx
    2df5:	89 d8                	mov    %ebx,%eax
    2df7:	c1 e8 18             	shr    $0x18,%eax
    2dfa:	89 c0                	mov    %eax,%eax
    2dfc:	48 8d 14 85 00 00 00 	lea    0x0(,%rax,4),%rdx
    2e03:	00 
    2e04:	48 8d 05 75 36 01 00 	lea    0x13675(%rip),%rax        # 16480 <crc_table>
    2e0b:	8b 04 02             	mov    (%rdx,%rax,1),%eax
    2e0e:	31 c1                	xor    %eax,%ecx
    2e10:	89 cb                	mov    %ecx,%ebx
    2e12:	4c 89 e0             	mov    %r12,%rax
    2e15:	4c 8d 60 04          	lea    0x4(%rax),%r12
    2e19:	8b 00                	mov    (%rax),%eax
    2e1b:	31 c3                	xor    %eax,%ebx
    2e1d:	0f b6 c3             	movzbl %bl,%eax
    2e20:	89 c0                	mov    %eax,%eax
    2e22:	48 05 00 03 00 00    	add    $0x300,%rax
    2e28:	48 8d 14 85 00 00 00 	lea    0x0(,%rax,4),%rdx
    2e2f:	00 
    2e30:	48 8d 05 49 36 01 00 	lea    0x13649(%rip),%rax        # 16480 <crc_table>
    2e37:	8b 14 02             	mov    (%rdx,%rax,1),%edx
    2e3a:	89 d8                	mov    %ebx,%eax
    2e3c:	c1 e8 08             	shr    $0x8,%eax
    2e3f:	0f b6 c0             	movzbl %al,%eax
    2e42:	89 c0                	mov    %eax,%eax
    2e44:	48 05 00 02 00 00    	add    $0x200,%rax
    2e4a:	48 8d 0c 85 00 00 00 	lea    0x0(,%rax,4),%rcx
    2e51:	00 
    2e52:	48 8d 05 27 36 01 00 	lea    0x13627(%rip),%rax        # 16480 <crc_table>
    2e59:	8b 04 01             	mov    (%rcx,%rax,1),%eax
    2e5c:	89 d1                	mov    %edx,%ecx
    2e5e:	31 c1                	xor    %eax,%ecx
    2e60:	89 d8                	mov    %ebx,%eax
    2e62:	c1 e8 10             	shr    $0x10,%eax
    2e65:	0f b6 c0             	movzbl %al,%eax
    2e68:	89 c0                	mov    %eax,%eax
    2e6a:	48 05 00 01 00 00    	add    $0x100,%rax
    2e70:	48 8d 14 85 00 00 00 	lea    0x0(,%rax,4),%rdx
    2e77:	00 
    2e78:	48 8d 05 01 36 01 00 	lea    0x13601(%rip),%rax        # 16480 <crc_table>
    2e7f:	8b 04 02             	mov    (%rdx,%rax,1),%eax
    2e82:	31 c1                	xor    %eax,%ecx
    2e84:	89 d8                	mov    %ebx,%eax
    2e86:	c1 e8 18             	shr    $0x18,%eax
    2e89:	89 c0                	mov    %eax,%eax
    2e8b:	48 8d 14 85 00 00 00 	lea    0x0(,%rax,4),%rdx
    2e92:	00 
    2e93:	48 8d 05 e6 35 01 00 	lea    0x135e6(%rip),%rax        # 16480 <crc_table>
    2e9a:	8b 04 02             	mov    (%rdx,%rax,1),%eax
    2e9d:	89 cb                	mov    %ecx,%ebx
    2e9f:	31 c3                	xor    %eax,%ebx
    2ea1:	4c 89 e0             	mov    %r12,%rax
    2ea4:	4c 8d 60 04          	lea    0x4(%rax),%r12
    2ea8:	8b 00                	mov    (%rax),%eax
    2eaa:	31 c3                	xor    %eax,%ebx
    2eac:	0f b6 c3             	movzbl %bl,%eax
    2eaf:	89 c0                	mov    %eax,%eax
    2eb1:	48 05 00 03 00 00    	add    $0x300,%rax
    2eb7:	48 8d 14 85 00 00 00 	lea    0x0(,%rax,4),%rdx
    2ebe:	00 
    2ebf:	48 8d 05 ba 35 01 00 	lea    0x135ba(%rip),%rax        # 16480 <crc_table>
    2ec6:	8b 14 02             	mov    (%rdx,%rax,1),%edx
    2ec9:	89 d8                	mov    %ebx,%eax
    2ecb:	c1 e8 08             	shr    $0x8,%eax
    2ece:	0f b6 c0             	movzbl %al,%eax
    2ed1:	89 c0                	mov    %eax,%eax
    2ed3:	48 05 00 02 00 00    	add    $0x200,%rax
    2ed9:	48 8d 0c 85 00 00 00 	lea    0x0(,%rax,4),%rcx
    2ee0:	00 
    2ee1:	48 8d 05 98 35 01 00 	lea    0x13598(%rip),%rax        # 16480 <crc_table>
    2ee8:	8b 04 01             	mov    (%rcx,%rax,1),%eax
    2eeb:	89 d1                	mov    %edx,%ecx
    2eed:	31 c1                	xor    %eax,%ecx
    2eef:	89 d8                	mov    %ebx,%eax
    2ef1:	c1 e8 10             	shr    $0x10,%eax
    2ef4:	0f b6 c0             	movzbl %al,%eax
    2ef7:	89 c0                	mov    %eax,%eax
    2ef9:	48 05 00 01 00 00    	add    $0x100,%rax
    2eff:	48 8d 14 85 00 00 00 	lea    0x0(,%rax,4),%rdx
    2f06:	00 
    2f07:	48 8d 05 72 35 01 00 	lea    0x13572(%rip),%rax        # 16480 <crc_table>
    2f0e:	8b 04 02             	mov    (%rdx,%rax,1),%eax
    2f11:	31 c1                	xor    %eax,%ecx
    2f13:	89 d8                	mov    %ebx,%eax
    2f15:	c1 e8 18             	shr    $0x18,%eax
    2f18:	89 c0                	mov    %eax,%eax
    2f1a:	48 8d 14 85 00 00 00 	lea    0x0(,%rax,4),%rdx
    2f21:	00 
    2f22:	48 8d 05 57 35 01 00 	lea    0x13557(%rip),%rax        # 16480 <crc_table>
    2f29:	8b 04 02             	mov    (%rdx,%rax,1),%eax
    2f2c:	89 cb                	mov    %ecx,%ebx
    2f2e:	31 c3                	xor    %eax,%ebx
    2f30:	4c 89 e0             	mov    %r12,%rax
    2f33:	4c 8d 60 04          	lea    0x4(%rax),%r12
    2f37:	8b 00                	mov    (%rax),%eax
    2f39:	31 c3                	xor    %eax,%ebx
    2f3b:	0f b6 c3             	movzbl %bl,%eax
    2f3e:	89 c0                	mov    %eax,%eax
    2f40:	48 05 00 03 00 00    	add    $0x300,%rax
    2f46:	48 8d 14 85 00 00 00 	lea    0x0(,%rax,4),%rdx
    2f4d:	00 
    2f4e:	48 8d 05 2b 35 01 00 	lea    0x1352b(%rip),%rax        # 16480 <crc_table>
    2f55:	8b 14 02             	mov    (%rdx,%rax,1),%edx
    2f58:	89 d8                	mov    %ebx,%eax
    2f5a:	c1 e8 08             	shr    $0x8,%eax
    2f5d:	0f b6 c0             	movzbl %al,%eax
    2f60:	89 c0                	mov    %eax,%eax
    2f62:	48 05 00 02 00 00    	add    $0x200,%rax
    2f68:	48 8d 0c 85 00 00 00 	lea    0x0(,%rax,4),%rcx
    2f6f:	00 
    2f70:	48 8d 05 09 35 01 00 	lea    0x13509(%rip),%rax        # 16480 <crc_table>
    2f77:	8b 04 01             	mov    (%rcx,%rax,1),%eax
    2f7a:	89 d1                	mov    %edx,%ecx
    2f7c:	31 c1                	xor    %eax,%ecx
    2f7e:	89 d8                	mov    %ebx,%eax
    2f80:	c1 e8 10             	shr    $0x10,%eax
    2f83:	0f b6 c0             	movzbl %al,%eax
    2f86:	89 c0                	mov    %eax,%eax
    2f88:	48 05 00 01 00 00    	add    $0x100,%rax
    2f8e:	48 8d 14 85 00 00 00 	lea    0x0(,%rax,4),%rdx
    2f95:	00 
    2f96:	48 8d 05 e3 34 01 00 	lea    0x134e3(%rip),%rax        # 16480 <crc_table>
    2f9d:	8b 04 02             	mov    (%rdx,%rax,1),%eax
    2fa0:	31 c1                	xor    %eax,%ecx
    2fa2:	89 d8                	mov    %ebx,%eax
    2fa4:	c1 e8 18             	shr    $0x18,%eax
    2fa7:	89 c0                	mov    %eax,%eax
    2fa9:	48 8d 14 85 00 00 00 	lea    0x0(,%rax,4),%rdx
    2fb0:	00 
    2fb1:	48 8d 05 c8 34 01 00 	lea    0x134c8(%rip),%rax        # 16480 <crc_table>
    2fb8:	8b 04 02             	mov    (%rdx,%rax,1),%eax
    2fbb:	89 cb                	mov    %ecx,%ebx
    2fbd:	31 c3                	xor    %eax,%ebx
    2fbf:	4c 89 e0             	mov    %r12,%rax
    2fc2:	4c 8d 60 04          	lea    0x4(%rax),%r12
    2fc6:	8b 00                	mov    (%rax),%eax
    2fc8:	31 c3                	xor    %eax,%ebx
    2fca:	0f b6 c3             	movzbl %bl,%eax
    2fcd:	89 c0                	mov    %eax,%eax
    2fcf:	48 05 00 03 00 00    	add    $0x300,%rax
    2fd5:	48 8d 14 85 00 00 00 	lea    0x0(,%rax,4),%rdx
    2fdc:	00 
    2fdd:	48 8d 05 9c 34 01 00 	lea    0x1349c(%rip),%rax        # 16480 <crc_table>
    2fe4:	8b 14 02             	mov    (%rdx,%rax,1),%edx
    2fe7:	89 d8                	mov    %ebx,%eax
    2fe9:	c1 e8 08             	shr    $0x8,%eax
    2fec:	0f b6 c0             	movzbl %al,%eax
    2fef:	89 c0                	mov    %eax,%eax
    2ff1:	48 05 00 02 00 00    	add    $0x200,%rax
    2ff7:	48 8d 0c 85 00 00 00 	lea    0x0(,%rax,4),%rcx
    2ffe:	00 
    2fff:	48 8d 05 7a 34 01 00 	lea    0x1347a(%rip),%rax        # 16480 <crc_table>
    3006:	8b 04 01             	mov    (%rcx,%rax,1),%eax
    3009:	89 d1                	mov    %edx,%ecx
    300b:	31 c1                	xor    %eax,%ecx
    300d:	89 d8                	mov    %ebx,%eax
    300f:	c1 e8 10             	shr    $0x10,%eax
    3012:	0f b6 c0             	movzbl %al,%eax
    3015:	89 c0                	mov    %eax,%eax
    3017:	48 05 00 01 00 00    	add    $0x100,%rax
    301d:	48 8d 14 85 00 00 00 	lea    0x0(,%rax,4),%rdx
    3024:	00 
    3025:	48 8d 05 54 34 01 00 	lea    0x13454(%rip),%rax        # 16480 <crc_table>
    302c:	8b 04 02             	mov    (%rdx,%rax,1),%eax
    302f:	31 c1                	xor    %eax,%ecx
    3031:	89 d8                	mov    %ebx,%eax
    3033:	c1 e8 18             	shr    $0x18,%eax
    3036:	89 c0                	mov    %eax,%eax
    3038:	48 8d 14 85 00 00 00 	lea    0x0(,%rax,4),%rdx
    303f:	00 
    3040:	48 8d 05 39 34 01 00 	lea    0x13439(%rip),%rax        # 16480 <crc_table>
    3047:	8b 04 02             	mov    (%rdx,%rax,1),%eax
    304a:	89 cb                	mov    %ecx,%ebx
    304c:	31 c3                	xor    %eax,%ebx
    304e:	4c 89 e0             	mov    %r12,%rax
    3051:	4c 8d 60 04          	lea    0x4(%rax),%r12
    3055:	8b 00                	mov    (%rax),%eax
    3057:	31 c3                	xor    %eax,%ebx
    3059:	0f b6 c3             	movzbl %bl,%eax
    305c:	89 c0                	mov    %eax,%eax
    305e:	48 05 00 03 00 00    	add    $0x300,%rax
    3064:	48 8d 14 85 00 00 00 	lea    0x0(,%rax,4),%rdx
    306b:	00 
    306c:	48 8d 05 0d 34 01 00 	lea    0x1340d(%rip),%rax        # 16480 <crc_table>
    3073:	8b 14 02             	mov    (%rdx,%rax,1),%edx
    3076:	89 d8                	mov    %ebx,%eax
    3078:	c1 e8 08             	shr    $0x8,%eax
    307b:	0f b6 c0             	movzbl %al,%eax
    307e:	89 c0                	mov    %eax,%eax
    3080:	48 05 00 02 00 00    	add    $0x200,%rax
    3086:	48 8d 0c 85 00 00 00 	lea    0x0(,%rax,4),%rcx
    308d:	00 
    308e:	48 8d 05 eb 33 01 00 	lea    0x133eb(%rip),%rax        # 16480 <crc_table>
    3095:	8b 04 01             	mov    (%rcx,%rax,1),%eax
    3098:	89 d1                	mov    %edx,%ecx
    309a:	31 c1                	xor    %eax,%ecx
    309c:	89 d8                	mov    %ebx,%eax
    309e:	c1 e8 10             	shr    $0x10,%eax
    30a1:	0f b6 c0             	movzbl %al,%eax
    30a4:	89 c0                	mov    %eax,%eax
    30a6:	48 05 00 01 00 00    	add    $0x100,%rax
    30ac:	48 8d 14 85 00 00 00 	lea    0x0(,%rax,4),%rdx
    30b3:	00 
    30b4:	48 8d 05 c5 33 01 00 	lea    0x133c5(%rip),%rax        # 16480 <crc_table>
    30bb:	8b 04 02             	mov    (%rdx,%rax,1),%eax
    30be:	31 c1                	xor    %eax,%ecx
    30c0:	89 d8                	mov    %ebx,%eax
    30c2:	c1 e8 18             	shr    $0x18,%eax
    30c5:	89 c0                	mov    %eax,%eax
    30c7:	48 8d 14 85 00 00 00 	lea    0x0(,%rax,4),%rdx
    30ce:	00 
    30cf:	48 8d 05 aa 33 01 00 	lea    0x133aa(%rip),%rax        # 16480 <crc_table>
    30d6:	8b 04 02             	mov    (%rdx,%rax,1),%eax
    30d9:	89 cb                	mov    %ecx,%ebx
    30db:	31 c3                	xor    %eax,%ebx
    30dd:	4c 89 e0             	mov    %r12,%rax
    30e0:	4c 8d 60 04          	lea    0x4(%rax),%r12
    30e4:	8b 00                	mov    (%rax),%eax
    30e6:	31 c3                	xor    %eax,%ebx
    30e8:	0f b6 c3             	movzbl %bl,%eax
    30eb:	89 c0                	mov    %eax,%eax
    30ed:	48 05 00 03 00 00    	add    $0x300,%rax
    30f3:	48 8d 14 85 00 00 00 	lea    0x0(,%rax,4),%rdx
    30fa:	00 
    30fb:	48 8d 05 7e 33 01 00 	lea    0x1337e(%rip),%rax        # 16480 <crc_table>
    3102:	8b 14 02             	mov    (%rdx,%rax,1),%edx
    3105:	89 d8                	mov    %ebx,%eax
    3107:	c1 e8 08             	shr    $0x8,%eax
    310a:	0f b6 c0             	movzbl %al,%eax
    310d:	89 c0                	mov    %eax,%eax
    310f:	48 05 00 02 00 00    	add    $0x200,%rax
    3115:	48 8d 0c 85 00 00 00 	lea    0x0(,%rax,4),%rcx
    311c:	00 
    311d:	48 8d 05 5c 33 01 00 	lea    0x1335c(%rip),%rax        # 16480 <crc_table>
    3124:	8b 04 01             	mov    (%rcx,%rax,1),%eax
    3127:	89 d1                	mov    %edx,%ecx
    3129:	31 c1                	xor    %eax,%ecx
    312b:	89 d8                	mov    %ebx,%eax
    312d:	c1 e8 10             	shr    $0x10,%eax
    3130:	0f b6 c0             	movzbl %al,%eax
    3133:	89 c0                	mov    %eax,%eax
    3135:	48 05 00 01 00 00    	add    $0x100,%rax
    313b:	48 8d 14 85 00 00 00 	lea    0x0(,%rax,4),%rdx
    3142:	00 
    3143:	48 8d 05 36 33 01 00 	lea    0x13336(%rip),%rax        # 16480 <crc_table>
    314a:	8b 04 02             	mov    (%rdx,%rax,1),%eax
    314d:	31 c1                	xor    %eax,%ecx
    314f:	89 d8                	mov    %ebx,%eax
    3151:	c1 e8 18             	shr    $0x18,%eax
    3154:	89 c0                	mov    %eax,%eax
    3156:	48 8d 14 85 00 00 00 	lea    0x0(,%rax,4),%rdx
    315d:	00 
    315e:	48 8d 05 1b 33 01 00 	lea    0x1331b(%rip),%rax        # 16480 <crc_table>
    3165:	8b 04 02             	mov    (%rdx,%rax,1),%eax
    3168:	89 cb                	mov    %ecx,%ebx
    316a:	31 c3                	xor    %eax,%ebx
    316c:	48 83 6d d8 20       	subq   $0x20,-0x28(%rbp)
    3171:	48 83 7d d8 1f       	cmpq   $0x1f,-0x28(%rbp)
    3176:	0f 87 78 fb ff ff    	ja     2cf4 <crc32_little+0x72>
    317c:	e9 94 00 00 00       	jmpq   3215 <crc32_little+0x593>
    3181:	4c 89 e0             	mov    %r12,%rax
    3184:	4c 8d 60 04          	lea    0x4(%rax),%r12
    3188:	8b 00                	mov    (%rax),%eax
    318a:	31 c3                	xor    %eax,%ebx
    318c:	0f b6 c3             	movzbl %bl,%eax
    318f:	89 c0                	mov    %eax,%eax
    3191:	48 05 00 03 00 00    	add    $0x300,%rax
    3197:	48 8d 14 85 00 00 00 	lea    0x0(,%rax,4),%rdx
    319e:	00 
    319f:	48 8d 05 da 32 01 00 	lea    0x132da(%rip),%rax        # 16480 <crc_table>
    31a6:	8b 14 02             	mov    (%rdx,%rax,1),%edx
    31a9:	89 d8                	mov    %ebx,%eax
    31ab:	c1 e8 08             	shr    $0x8,%eax
    31ae:	0f b6 c0             	movzbl %al,%eax
    31b1:	89 c0                	mov    %eax,%eax
    31b3:	48 05 00 02 00 00    	add    $0x200,%rax
    31b9:	48 8d 0c 85 00 00 00 	lea    0x0(,%rax,4),%rcx
    31c0:	00 
    31c1:	48 8d 05 b8 32 01 00 	lea    0x132b8(%rip),%rax        # 16480 <crc_table>
    31c8:	8b 04 01             	mov    (%rcx,%rax,1),%eax
    31cb:	89 d1                	mov    %edx,%ecx
    31cd:	31 c1                	xor    %eax,%ecx
    31cf:	89 d8                	mov    %ebx,%eax
    31d1:	c1 e8 10             	shr    $0x10,%eax
    31d4:	0f b6 c0             	movzbl %al,%eax
    31d7:	89 c0                	mov    %eax,%eax
    31d9:	48 05 00 01 00 00    	add    $0x100,%rax
    31df:	48 8d 14 85 00 00 00 	lea    0x0(,%rax,4),%rdx
    31e6:	00 
    31e7:	48 8d 05 92 32 01 00 	lea    0x13292(%rip),%rax        # 16480 <crc_table>
    31ee:	8b 04 02             	mov    (%rdx,%rax,1),%eax
    31f1:	31 c1                	xor    %eax,%ecx
    31f3:	89 d8                	mov    %ebx,%eax
    31f5:	c1 e8 18             	shr    $0x18,%eax
    31f8:	89 c0                	mov    %eax,%eax
    31fa:	48 8d 14 85 00 00 00 	lea    0x0(,%rax,4),%rdx
    3201:	00 
    3202:	48 8d 05 77 32 01 00 	lea    0x13277(%rip),%rax        # 16480 <crc_table>
    3209:	8b 04 02             	mov    (%rdx,%rax,1),%eax
    320c:	89 cb                	mov    %ecx,%ebx
    320e:	31 c3                	xor    %eax,%ebx
    3210:	48 83 6d d8 04       	subq   $0x4,-0x28(%rbp)
    3215:	48 83 7d d8 03       	cmpq   $0x3,-0x28(%rbp)
    321a:	0f 87 61 ff ff ff    	ja     3181 <crc32_little+0x4ff>
    3220:	4c 89 65 e0          	mov    %r12,-0x20(%rbp)
    3224:	48 83 7d d8 00       	cmpq   $0x0,-0x28(%rbp)
    3229:	74 40                	je     326b <crc32_little+0x5e9>
    322b:	48 8b 45 e0          	mov    -0x20(%rbp),%rax
    322f:	48 8d 50 01          	lea    0x1(%rax),%rdx
    3233:	48 89 55 e0          	mov    %rdx,-0x20(%rbp)
    3237:	0f b6 00             	movzbl (%rax),%eax
    323a:	0f b6 c0             	movzbl %al,%eax
    323d:	31 d8                	xor    %ebx,%eax
    323f:	0f b6 c0             	movzbl %al,%eax
    3242:	89 c0                	mov    %eax,%eax
    3244:	48 8d 14 85 00 00 00 	lea    0x0(,%rax,4),%rdx
    324b:	00 
    324c:	48 8d 05 2d 32 01 00 	lea    0x1322d(%rip),%rax        # 16480 <crc_table>
    3253:	8b 04 02             	mov    (%rdx,%rax,1),%eax
    3256:	89 da                	mov    %ebx,%edx
    3258:	c1 ea 08             	shr    $0x8,%edx
    325b:	31 d0                	xor    %edx,%eax
    325d:	89 c3                	mov    %eax,%ebx
    325f:	48 83 6d d8 01       	subq   $0x1,-0x28(%rbp)
    3264:	48 83 7d d8 00       	cmpq   $0x0,-0x28(%rbp)
    3269:	75 c0                	jne    322b <crc32_little+0x5a9>
    326b:	f7 d3                	not    %ebx
    326d:	89 d8                	mov    %ebx,%eax
    326f:	5b                   	pop    %rbx
    3270:	41 5c                	pop    %r12
    3272:	5d                   	pop    %rbp
    3273:	c3                   	retq   

0000000000003274 <crc32_big>:
    3274:	55                   	push   %rbp
    3275:	48 89 e5             	mov    %rsp,%rbp
    3278:	41 54                	push   %r12
    327a:	53                   	push   %rbx
    327b:	48 89 7d e8          	mov    %rdi,-0x18(%rbp)
    327f:	48 89 75 e0          	mov    %rsi,-0x20(%rbp)
    3283:	48 89 55 d8          	mov    %rdx,-0x28(%rbp)
    3287:	48 8b 45 e8          	mov    -0x18(%rbp),%rax
    328b:	c1 e8 18             	shr    $0x18,%eax
    328e:	89 c2                	mov    %eax,%edx
    3290:	48 8b 45 e8          	mov    -0x18(%rbp),%rax
    3294:	c1 e8 08             	shr    $0x8,%eax
    3297:	25 00 ff 00 00       	and    $0xff00,%eax
    329c:	01 c2                	add    %eax,%edx
    329e:	48 8b 45 e8          	mov    -0x18(%rbp),%rax
    32a2:	c1 e0 08             	shl    $0x8,%eax
    32a5:	25 00 00 ff 00       	and    $0xff0000,%eax
    32aa:	01 c2                	add    %eax,%edx
    32ac:	48 8b 45 e8          	mov    -0x18(%rbp),%rax
    32b0:	c1 e0 18             	shl    $0x18,%eax
    32b3:	8d 1c 02             	lea    (%rdx,%rax,1),%ebx
    32b6:	f7 d3                	not    %ebx
    32b8:	eb 41                	jmp    32fb <crc32_big+0x87>
    32ba:	89 d9                	mov    %ebx,%ecx
    32bc:	c1 e9 18             	shr    $0x18,%ecx
    32bf:	48 8b 45 e0          	mov    -0x20(%rbp),%rax
    32c3:	48 8d 50 01          	lea    0x1(%rax),%rdx
    32c7:	48 89 55 e0          	mov    %rdx,-0x20(%rbp)
    32cb:	0f b6 00             	movzbl (%rax),%eax
    32ce:	0f b6 c0             	movzbl %al,%eax
    32d1:	31 c8                	xor    %ecx,%eax
    32d3:	89 c0                	mov    %eax,%eax
    32d5:	48 05 00 04 00 00    	add    $0x400,%rax
    32db:	48 8d 14 85 00 00 00 	lea    0x0(,%rax,4),%rdx
    32e2:	00 
    32e3:	48 8d 05 96 31 01 00 	lea    0x13196(%rip),%rax        # 16480 <crc_table>
    32ea:	8b 04 02             	mov    (%rdx,%rax,1),%eax
    32ed:	c1 e3 08             	shl    $0x8,%ebx
    32f0:	89 da                	mov    %ebx,%edx
    32f2:	31 d0                	xor    %edx,%eax
    32f4:	89 c3                	mov    %eax,%ebx
    32f6:	48 83 6d d8 01       	subq   $0x1,-0x28(%rbp)
    32fb:	48 83 7d d8 00       	cmpq   $0x0,-0x28(%rbp)
    3300:	74 0c                	je     330e <crc32_big+0x9a>
    3302:	48 8b 45 e0          	mov    -0x20(%rbp),%rax
    3306:	83 e0 03             	and    $0x3,%eax
    3309:	48 85 c0             	test   %rax,%rax
    330c:	75 ac                	jne    32ba <crc32_big+0x46>
    330e:	4c 8b 65 e0          	mov    -0x20(%rbp),%r12
    3312:	e9 ad 04 00 00       	jmpq   37c4 <crc32_big+0x550>
    3317:	4c 89 e0             	mov    %r12,%rax
    331a:	4c 8d 60 04          	lea    0x4(%rax),%r12
    331e:	8b 00                	mov    (%rax),%eax
    3320:	31 c3                	xor    %eax,%ebx
    3322:	0f b6 c3             	movzbl %bl,%eax
    3325:	89 c0                	mov    %eax,%eax
    3327:	48 05 00 04 00 00    	add    $0x400,%rax
    332d:	48 8d 14 85 00 00 00 	lea    0x0(,%rax,4),%rdx
    3334:	00 
    3335:	48 8d 05 44 31 01 00 	lea    0x13144(%rip),%rax        # 16480 <crc_table>
    333c:	8b 14 02             	mov    (%rdx,%rax,1),%edx
    333f:	89 d8                	mov    %ebx,%eax
    3341:	c1 e8 08             	shr    $0x8,%eax
    3344:	0f b6 c0             	movzbl %al,%eax
    3347:	89 c0                	mov    %eax,%eax
    3349:	48 05 00 05 00 00    	add    $0x500,%rax
    334f:	48 8d 0c 85 00 00 00 	lea    0x0(,%rax,4),%rcx
    3356:	00 
    3357:	48 8d 05 22 31 01 00 	lea    0x13122(%rip),%rax        # 16480 <crc_table>
    335e:	8b 04 01             	mov    (%rcx,%rax,1),%eax
    3361:	89 d1                	mov    %edx,%ecx
    3363:	31 c1                	xor    %eax,%ecx
    3365:	89 d8                	mov    %ebx,%eax
    3367:	c1 e8 10             	shr    $0x10,%eax
    336a:	0f b6 c0             	movzbl %al,%eax
    336d:	89 c0                	mov    %eax,%eax
    336f:	48 05 00 06 00 00    	add    $0x600,%rax
    3375:	48 8d 14 85 00 00 00 	lea    0x0(,%rax,4),%rdx
    337c:	00 
    337d:	48 8d 05 fc 30 01 00 	lea    0x130fc(%rip),%rax        # 16480 <crc_table>
    3384:	8b 04 02             	mov    (%rdx,%rax,1),%eax
    3387:	31 c1                	xor    %eax,%ecx
    3389:	89 d8                	mov    %ebx,%eax
    338b:	c1 e8 18             	shr    $0x18,%eax
    338e:	89 c0                	mov    %eax,%eax
    3390:	48 05 00 07 00 00    	add    $0x700,%rax
    3396:	48 8d 14 85 00 00 00 	lea    0x0(,%rax,4),%rdx
    339d:	00 
    339e:	48 8d 05 db 30 01 00 	lea    0x130db(%rip),%rax        # 16480 <crc_table>
    33a5:	8b 04 02             	mov    (%rdx,%rax,1),%eax
    33a8:	31 c1                	xor    %eax,%ecx
    33aa:	89 cb                	mov    %ecx,%ebx
    33ac:	4c 89 e0             	mov    %r12,%rax
    33af:	4c 8d 60 04          	lea    0x4(%rax),%r12
    33b3:	8b 00                	mov    (%rax),%eax
    33b5:	31 c3                	xor    %eax,%ebx
    33b7:	0f b6 c3             	movzbl %bl,%eax
    33ba:	89 c0                	mov    %eax,%eax
    33bc:	48 05 00 04 00 00    	add    $0x400,%rax
    33c2:	48 8d 14 85 00 00 00 	lea    0x0(,%rax,4),%rdx
    33c9:	00 
    33ca:	48 8d 05 af 30 01 00 	lea    0x130af(%rip),%rax        # 16480 <crc_table>
    33d1:	8b 14 02             	mov    (%rdx,%rax,1),%edx
    33d4:	89 d8                	mov    %ebx,%eax
    33d6:	c1 e8 08             	shr    $0x8,%eax
    33d9:	0f b6 c0             	movzbl %al,%eax
    33dc:	89 c0                	mov    %eax,%eax
    33de:	48 05 00 05 00 00    	add    $0x500,%rax
    33e4:	48 8d 0c 85 00 00 00 	lea    0x0(,%rax,4),%rcx
    33eb:	00 
    33ec:	48 8d 05 8d 30 01 00 	lea    0x1308d(%rip),%rax        # 16480 <crc_table>
    33f3:	8b 04 01             	mov    (%rcx,%rax,1),%eax
    33f6:	89 d1                	mov    %edx,%ecx
    33f8:	31 c1                	xor    %eax,%ecx
    33fa:	89 d8                	mov    %ebx,%eax
    33fc:	c1 e8 10             	shr    $0x10,%eax
    33ff:	0f b6 c0             	movzbl %al,%eax
    3402:	89 c0                	mov    %eax,%eax
    3404:	48 05 00 06 00 00    	add    $0x600,%rax
    340a:	48 8d 14 85 00 00 00 	lea    0x0(,%rax,4),%rdx
    3411:	00 
    3412:	48 8d 05 67 30 01 00 	lea    0x13067(%rip),%rax        # 16480 <crc_table>
    3419:	8b 04 02             	mov    (%rdx,%rax,1),%eax
    341c:	31 c1                	xor    %eax,%ecx
    341e:	89 d8                	mov    %ebx,%eax
    3420:	c1 e8 18             	shr    $0x18,%eax
    3423:	89 c0                	mov    %eax,%eax
    3425:	48 05 00 07 00 00    	add    $0x700,%rax
    342b:	48 8d 14 85 00 00 00 	lea    0x0(,%rax,4),%rdx
    3432:	00 
    3433:	48 8d 05 46 30 01 00 	lea    0x13046(%rip),%rax        # 16480 <crc_table>
    343a:	8b 04 02             	mov    (%rdx,%rax,1),%eax
    343d:	31 c1                	xor    %eax,%ecx
    343f:	89 cb                	mov    %ecx,%ebx
    3441:	4c 89 e0             	mov    %r12,%rax
    3444:	4c 8d 60 04          	lea    0x4(%rax),%r12
    3448:	8b 00                	mov    (%rax),%eax
    344a:	31 c3                	xor    %eax,%ebx
    344c:	0f b6 c3             	movzbl %bl,%eax
    344f:	89 c0                	mov    %eax,%eax
    3451:	48 05 00 04 00 00    	add    $0x400,%rax
    3457:	48 8d 14 85 00 00 00 	lea    0x0(,%rax,4),%rdx
    345e:	00 
    345f:	48 8d 05 1a 30 01 00 	lea    0x1301a(%rip),%rax        # 16480 <crc_table>
    3466:	8b 14 02             	mov    (%rdx,%rax,1),%edx
    3469:	89 d8                	mov    %ebx,%eax
    346b:	c1 e8 08             	shr    $0x8,%eax
    346e:	0f b6 c0             	movzbl %al,%eax
    3471:	89 c0                	mov    %eax,%eax
    3473:	48 05 00 05 00 00    	add    $0x500,%rax
    3479:	48 8d 0c 85 00 00 00 	lea    0x0(,%rax,4),%rcx
    3480:	00 
    3481:	48 8d 05 f8 2f 01 00 	lea    0x12ff8(%rip),%rax        # 16480 <crc_table>
    3488:	8b 04 01             	mov    (%rcx,%rax,1),%eax
    348b:	89 d1                	mov    %edx,%ecx
    348d:	31 c1                	xor    %eax,%ecx
    348f:	89 d8                	mov    %ebx,%eax
    3491:	c1 e8 10             	shr    $0x10,%eax
    3494:	0f b6 c0             	movzbl %al,%eax
    3497:	89 c0                	mov    %eax,%eax
    3499:	48 05 00 06 00 00    	add    $0x600,%rax
    349f:	48 8d 14 85 00 00 00 	lea    0x0(,%rax,4),%rdx
    34a6:	00 
    34a7:	48 8d 05 d2 2f 01 00 	lea    0x12fd2(%rip),%rax        # 16480 <crc_table>
    34ae:	8b 04 02             	mov    (%rdx,%rax,1),%eax
    34b1:	31 c1                	xor    %eax,%ecx
    34b3:	89 d8                	mov    %ebx,%eax
    34b5:	c1 e8 18             	shr    $0x18,%eax
    34b8:	89 c0                	mov    %eax,%eax
    34ba:	48 05 00 07 00 00    	add    $0x700,%rax
    34c0:	48 8d 14 85 00 00 00 	lea    0x0(,%rax,4),%rdx
    34c7:	00 
    34c8:	48 8d 05 b1 2f 01 00 	lea    0x12fb1(%rip),%rax        # 16480 <crc_table>
    34cf:	8b 04 02             	mov    (%rdx,%rax,1),%eax
    34d2:	89 cb                	mov    %ecx,%ebx
    34d4:	31 c3                	xor    %eax,%ebx
    34d6:	4c 89 e0             	mov    %r12,%rax
    34d9:	4c 8d 60 04          	lea    0x4(%rax),%r12
    34dd:	8b 00                	mov    (%rax),%eax
    34df:	31 c3                	xor    %eax,%ebx
    34e1:	0f b6 c3             	movzbl %bl,%eax
    34e4:	89 c0                	mov    %eax,%eax
    34e6:	48 05 00 04 00 00    	add    $0x400,%rax
    34ec:	48 8d 14 85 00 00 00 	lea    0x0(,%rax,4),%rdx
    34f3:	00 
    34f4:	48 8d 05 85 2f 01 00 	lea    0x12f85(%rip),%rax        # 16480 <crc_table>
    34fb:	8b 14 02             	mov    (%rdx,%rax,1),%edx
    34fe:	89 d8                	mov    %ebx,%eax
    3500:	c1 e8 08             	shr    $0x8,%eax
    3503:	0f b6 c0             	movzbl %al,%eax
    3506:	89 c0                	mov    %eax,%eax
    3508:	48 05 00 05 00 00    	add    $0x500,%rax
    350e:	48 8d 0c 85 00 00 00 	lea    0x0(,%rax,4),%rcx
    3515:	00 
    3516:	48 8d 05 63 2f 01 00 	lea    0x12f63(%rip),%rax        # 16480 <crc_table>
    351d:	8b 04 01             	mov    (%rcx,%rax,1),%eax
    3520:	89 d1                	mov    %edx,%ecx
    3522:	31 c1                	xor    %eax,%ecx
    3524:	89 d8                	mov    %ebx,%eax
    3526:	c1 e8 10             	shr    $0x10,%eax
    3529:	0f b6 c0             	movzbl %al,%eax
    352c:	89 c0                	mov    %eax,%eax
    352e:	48 05 00 06 00 00    	add    $0x600,%rax
    3534:	48 8d 14 85 00 00 00 	lea    0x0(,%rax,4),%rdx
    353b:	00 
    353c:	48 8d 05 3d 2f 01 00 	lea    0x12f3d(%rip),%rax        # 16480 <crc_table>
    3543:	8b 04 02             	mov    (%rdx,%rax,1),%eax
    3546:	31 c1                	xor    %eax,%ecx
    3548:	89 d8                	mov    %ebx,%eax
    354a:	c1 e8 18             	shr    $0x18,%eax
    354d:	89 c0                	mov    %eax,%eax
    354f:	48 05 00 07 00 00    	add    $0x700,%rax
    3555:	48 8d 14 85 00 00 00 	lea    0x0(,%rax,4),%rdx
    355c:	00 
    355d:	48 8d 05 1c 2f 01 00 	lea    0x12f1c(%rip),%rax        # 16480 <crc_table>
    3564:	8b 04 02             	mov    (%rdx,%rax,1),%eax
    3567:	89 cb                	mov    %ecx,%ebx
    3569:	31 c3                	xor    %eax,%ebx
    356b:	4c 89 e0             	mov    %r12,%rax
    356e:	4c 8d 60 04          	lea    0x4(%rax),%r12
    3572:	8b 00                	mov    (%rax),%eax
    3574:	31 c3                	xor    %eax,%ebx
    3576:	0f b6 c3             	movzbl %bl,%eax
    3579:	89 c0                	mov    %eax,%eax
    357b:	48 05 00 04 00 00    	add    $0x400,%rax
    3581:	48 8d 14 85 00 00 00 	lea    0x0(,%rax,4),%rdx
    3588:	00 
    3589:	48 8d 05 f0 2e 01 00 	lea    0x12ef0(%rip),%rax        # 16480 <crc_table>
    3590:	8b 14 02             	mov    (%rdx,%rax,1),%edx
    3593:	89 d8                	mov    %ebx,%eax
    3595:	c1 e8 08             	shr    $0x8,%eax
    3598:	0f b6 c0             	movzbl %al,%eax
    359b:	89 c0                	mov    %eax,%eax
    359d:	48 05 00 05 00 00    	add    $0x500,%rax
    35a3:	48 8d 0c 85 00 00 00 	lea    0x0(,%rax,4),%rcx
    35aa:	00 
    35ab:	48 8d 05 ce 2e 01 00 	lea    0x12ece(%rip),%rax        # 16480 <crc_table>
    35b2:	8b 04 01             	mov    (%rcx,%rax,1),%eax
    35b5:	89 d1                	mov    %edx,%ecx
    35b7:	31 c1                	xor    %eax,%ecx
    35b9:	89 d8                	mov    %ebx,%eax
    35bb:	c1 e8 10             	shr    $0x10,%eax
    35be:	0f b6 c0             	movzbl %al,%eax
    35c1:	89 c0                	mov    %eax,%eax
    35c3:	48 05 00 06 00 00    	add    $0x600,%rax
    35c9:	48 8d 14 85 00 00 00 	lea    0x0(,%rax,4),%rdx
    35d0:	00 
    35d1:	48 8d 05 a8 2e 01 00 	lea    0x12ea8(%rip),%rax        # 16480 <crc_table>
    35d8:	8b 04 02             	mov    (%rdx,%rax,1),%eax
    35db:	31 c1                	xor    %eax,%ecx
    35dd:	89 d8                	mov    %ebx,%eax
    35df:	c1 e8 18             	shr    $0x18,%eax
    35e2:	89 c0                	mov    %eax,%eax
    35e4:	48 05 00 07 00 00    	add    $0x700,%rax
    35ea:	48 8d 14 85 00 00 00 	lea    0x0(,%rax,4),%rdx
    35f1:	00 
    35f2:	48 8d 05 87 2e 01 00 	lea    0x12e87(%rip),%rax        # 16480 <crc_table>
    35f9:	8b 04 02             	mov    (%rdx,%rax,1),%eax
    35fc:	89 cb                	mov    %ecx,%ebx
    35fe:	31 c3                	xor    %eax,%ebx
    3600:	4c 89 e0             	mov    %r12,%rax
    3603:	4c 8d 60 04          	lea    0x4(%rax),%r12
    3607:	8b 00                	mov    (%rax),%eax
    3609:	31 c3                	xor    %eax,%ebx
    360b:	0f b6 c3             	movzbl %bl,%eax
    360e:	89 c0                	mov    %eax,%eax
    3610:	48 05 00 04 00 00    	add    $0x400,%rax
    3616:	48 8d 14 85 00 00 00 	lea    0x0(,%rax,4),%rdx
    361d:	00 
    361e:	48 8d 05 5b 2e 01 00 	lea    0x12e5b(%rip),%rax        # 16480 <crc_table>
    3625:	8b 14 02             	mov    (%rdx,%rax,1),%edx
    3628:	89 d8                	mov    %ebx,%eax
    362a:	c1 e8 08             	shr    $0x8,%eax
    362d:	0f b6 c0             	movzbl %al,%eax
    3630:	89 c0                	mov    %eax,%eax
    3632:	48 05 00 05 00 00    	add    $0x500,%rax
    3638:	48 8d 0c 85 00 00 00 	lea    0x0(,%rax,4),%rcx
    363f:	00 
    3640:	48 8d 05 39 2e 01 00 	lea    0x12e39(%rip),%rax        # 16480 <crc_table>
    3647:	8b 04 01             	mov    (%rcx,%rax,1),%eax
    364a:	89 d1                	mov    %edx,%ecx
    364c:	31 c1                	xor    %eax,%ecx
    364e:	89 d8                	mov    %ebx,%eax
    3650:	c1 e8 10             	shr    $0x10,%eax
    3653:	0f b6 c0             	movzbl %al,%eax
    3656:	89 c0                	mov    %eax,%eax
    3658:	48 05 00 06 00 00    	add    $0x600,%rax
    365e:	48 8d 14 85 00 00 00 	lea    0x0(,%rax,4),%rdx
    3665:	00 
    3666:	48 8d 05 13 2e 01 00 	lea    0x12e13(%rip),%rax        # 16480 <crc_table>
    366d:	8b 04 02             	mov    (%rdx,%rax,1),%eax
    3670:	31 c1                	xor    %eax,%ecx
    3672:	89 d8                	mov    %ebx,%eax
    3674:	c1 e8 18             	shr    $0x18,%eax
    3677:	89 c0                	mov    %eax,%eax
    3679:	48 05 00 07 00 00    	add    $0x700,%rax
    367f:	48 8d 14 85 00 00 00 	lea    0x0(,%rax,4),%rdx
    3686:	00 
    3687:	48 8d 05 f2 2d 01 00 	lea    0x12df2(%rip),%rax        # 16480 <crc_table>
    368e:	8b 04 02             	mov    (%rdx,%rax,1),%eax
    3691:	89 cb                	mov    %ecx,%ebx
    3693:	31 c3                	xor    %eax,%ebx
    3695:	4c 89 e0             	mov    %r12,%rax
    3698:	4c 8d 60 04          	lea    0x4(%rax),%r12
    369c:	8b 00                	mov    (%rax),%eax
    369e:	31 c3                	xor    %eax,%ebx
    36a0:	0f b6 c3             	movzbl %bl,%eax
    36a3:	89 c0                	mov    %eax,%eax
    36a5:	48 05 00 04 00 00    	add    $0x400,%rax
    36ab:	48 8d 14 85 00 00 00 	lea    0x0(,%rax,4),%rdx
    36b2:	00 
    36b3:	48 8d 05 c6 2d 01 00 	lea    0x12dc6(%rip),%rax        # 16480 <crc_table>
    36ba:	8b 14 02             	mov    (%rdx,%rax,1),%edx
    36bd:	89 d8                	mov    %ebx,%eax
    36bf:	c1 e8 08             	shr    $0x8,%eax
    36c2:	0f b6 c0             	movzbl %al,%eax
    36c5:	89 c0                	mov    %eax,%eax
    36c7:	48 05 00 05 00 00    	add    $0x500,%rax
    36cd:	48 8d 0c 85 00 00 00 	lea    0x0(,%rax,4),%rcx
    36d4:	00 
    36d5:	48 8d 05 a4 2d 01 00 	lea    0x12da4(%rip),%rax        # 16480 <crc_table>
    36dc:	8b 04 01             	mov    (%rcx,%rax,1),%eax
    36df:	89 d1                	mov    %edx,%ecx
    36e1:	31 c1                	xor    %eax,%ecx
    36e3:	89 d8                	mov    %ebx,%eax
    36e5:	c1 e8 10             	shr    $0x10,%eax
    36e8:	0f b6 c0             	movzbl %al,%eax
    36eb:	89 c0                	mov    %eax,%eax
    36ed:	48 05 00 06 00 00    	add    $0x600,%rax
    36f3:	48 8d 14 85 00 00 00 	lea    0x0(,%rax,4),%rdx
    36fa:	00 
    36fb:	48 8d 05 7e 2d 01 00 	lea    0x12d7e(%rip),%rax        # 16480 <crc_table>
    3702:	8b 04 02             	mov    (%rdx,%rax,1),%eax
    3705:	31 c1                	xor    %eax,%ecx
    3707:	89 d8                	mov    %ebx,%eax
    3709:	c1 e8 18             	shr    $0x18,%eax
    370c:	89 c0                	mov    %eax,%eax
    370e:	48 05 00 07 00 00    	add    $0x700,%rax
    3714:	48 8d 14 85 00 00 00 	lea    0x0(,%rax,4),%rdx
    371b:	00 
    371c:	48 8d 05 5d 2d 01 00 	lea    0x12d5d(%rip),%rax        # 16480 <crc_table>
    3723:	8b 04 02             	mov    (%rdx,%rax,1),%eax
    3726:	89 cb                	mov    %ecx,%ebx
    3728:	31 c3                	xor    %eax,%ebx
    372a:	4c 89 e0             	mov    %r12,%rax
    372d:	4c 8d 60 04          	lea    0x4(%rax),%r12
    3731:	8b 00                	mov    (%rax),%eax
    3733:	31 c3                	xor    %eax,%ebx
    3735:	0f b6 c3             	movzbl %bl,%eax
    3738:	89 c0                	mov    %eax,%eax
    373a:	48 05 00 04 00 00    	add    $0x400,%rax
    3740:	48 8d 14 85 00 00 00 	lea    0x0(,%rax,4),%rdx
    3747:	00 
    3748:	48 8d 05 31 2d 01 00 	lea    0x12d31(%rip),%rax        # 16480 <crc_table>
    374f:	8b 14 02             	mov    (%rdx,%rax,1),%edx
    3752:	89 d8                	mov    %ebx,%eax
    3754:	c1 e8 08             	shr    $0x8,%eax
    3757:	0f b6 c0             	movzbl %al,%eax
    375a:	89 c0                	mov    %eax,%eax
    375c:	48 05 00 05 00 00    	add    $0x500,%rax
    3762:	48 8d 0c 85 00 00 00 	lea    0x0(,%rax,4),%rcx
    3769:	00 
    376a:	48 8d 05 0f 2d 01 00 	lea    0x12d0f(%rip),%rax        # 16480 <crc_table>
    3771:	8b 04 01             	mov    (%rcx,%rax,1),%eax
    3774:	89 d1                	mov    %edx,%ecx
    3776:	31 c1                	xor    %eax,%ecx
    3778:	89 d8                	mov    %ebx,%eax
    377a:	c1 e8 10             	shr    $0x10,%eax
    377d:	0f b6 c0             	movzbl %al,%eax
    3780:	89 c0                	mov    %eax,%eax
    3782:	48 05 00 06 00 00    	add    $0x600,%rax
    3788:	48 8d 14 85 00 00 00 	lea    0x0(,%rax,4),%rdx
    378f:	00 
    3790:	48 8d 05 e9 2c 01 00 	lea    0x12ce9(%rip),%rax        # 16480 <crc_table>
    3797:	8b 04 02             	mov    (%rdx,%rax,1),%eax
    379a:	31 c1                	xor    %eax,%ecx
    379c:	89 d8                	mov    %ebx,%eax
    379e:	c1 e8 18             	shr    $0x18,%eax
    37a1:	89 c0                	mov    %eax,%eax
    37a3:	48 05 00 07 00 00    	add    $0x700,%rax
    37a9:	48 8d 14 85 00 00 00 	lea    0x0(,%rax,4),%rdx
    37b0:	00 
    37b1:	48 8d 05 c8 2c 01 00 	lea    0x12cc8(%rip),%rax        # 16480 <crc_table>
    37b8:	8b 04 02             	mov    (%rdx,%rax,1),%eax
    37bb:	89 cb                	mov    %ecx,%ebx
    37bd:	31 c3                	xor    %eax,%ebx
    37bf:	48 83 6d d8 20       	subq   $0x20,-0x28(%rbp)
    37c4:	48 83 7d d8 1f       	cmpq   $0x1f,-0x28(%rbp)
    37c9:	0f 87 48 fb ff ff    	ja     3317 <crc32_big+0xa3>
    37cf:	e9 9a 00 00 00       	jmpq   386e <crc32_big+0x5fa>
    37d4:	4c 89 e0             	mov    %r12,%rax
    37d7:	4c 8d 60 04          	lea    0x4(%rax),%r12
    37db:	8b 00                	mov    (%rax),%eax
    37dd:	31 c3                	xor    %eax,%ebx
    37df:	0f b6 c3             	movzbl %bl,%eax
    37e2:	89 c0                	mov    %eax,%eax
    37e4:	48 05 00 04 00 00    	add    $0x400,%rax
    37ea:	48 8d 14 85 00 00 00 	lea    0x0(,%rax,4),%rdx
    37f1:	00 
    37f2:	48 8d 05 87 2c 01 00 	lea    0x12c87(%rip),%rax        # 16480 <crc_table>
    37f9:	8b 14 02             	mov    (%rdx,%rax,1),%edx
    37fc:	89 d8                	mov    %ebx,%eax
    37fe:	c1 e8 08             	shr    $0x8,%eax
    3801:	0f b6 c0             	movzbl %al,%eax
    3804:	89 c0                	mov    %eax,%eax
    3806:	48 05 00 05 00 00    	add    $0x500,%rax
    380c:	48 8d 0c 85 00 00 00 	lea    0x0(,%rax,4),%rcx
    3813:	00 
    3814:	48 8d 05 65 2c 01 00 	lea    0x12c65(%rip),%rax        # 16480 <crc_table>
    381b:	8b 04 01             	mov    (%rcx,%rax,1),%eax
    381e:	89 d1                	mov    %edx,%ecx
    3820:	31 c1                	xor    %eax,%ecx
    3822:	89 d8                	mov    %ebx,%eax
    3824:	c1 e8 10             	shr    $0x10,%eax
    3827:	0f b6 c0             	movzbl %al,%eax
    382a:	89 c0                	mov    %eax,%eax
    382c:	48 05 00 06 00 00    	add    $0x600,%rax
    3832:	48 8d 14 85 00 00 00 	lea    0x0(,%rax,4),%rdx
    3839:	00 
    383a:	48 8d 05 3f 2c 01 00 	lea    0x12c3f(%rip),%rax        # 16480 <crc_table>
    3841:	8b 04 02             	mov    (%rdx,%rax,1),%eax
    3844:	31 c1                	xor    %eax,%ecx
    3846:	89 d8                	mov    %ebx,%eax
    3848:	c1 e8 18             	shr    $0x18,%eax
    384b:	89 c0                	mov    %eax,%eax
    384d:	48 05 00 07 00 00    	add    $0x700,%rax
    3853:	48 8d 14 85 00 00 00 	lea    0x0(,%rax,4),%rdx
    385a:	00 
    385b:	48 8d 05 1e 2c 01 00 	lea    0x12c1e(%rip),%rax        # 16480 <crc_table>
    3862:	8b 04 02             	mov    (%rdx,%rax,1),%eax
    3865:	89 cb                	mov    %ecx,%ebx
    3867:	31 c3                	xor    %eax,%ebx
    3869:	48 83 6d d8 04       	subq   $0x4,-0x28(%rbp)
    386e:	48 83 7d d8 03       	cmpq   $0x3,-0x28(%rbp)
    3873:	0f 87 5b ff ff ff    	ja     37d4 <crc32_big+0x560>
    3879:	4c 89 65 e0          	mov    %r12,-0x20(%rbp)
    387d:	48 83 7d d8 00       	cmpq   $0x0,-0x28(%rbp)
    3882:	74 48                	je     38cc <crc32_big+0x658>
    3884:	89 d9                	mov    %ebx,%ecx
    3886:	c1 e9 18             	shr    $0x18,%ecx
    3889:	48 8b 45 e0          	mov    -0x20(%rbp),%rax
    388d:	48 8d 50 01          	lea    0x1(%rax),%rdx
    3891:	48 89 55 e0          	mov    %rdx,-0x20(%rbp)
    3895:	0f b6 00             	movzbl (%rax),%eax
    3898:	0f b6 c0             	movzbl %al,%eax
    389b:	31 c8                	xor    %ecx,%eax
    389d:	89 c0                	mov    %eax,%eax
    389f:	48 05 00 04 00 00    	add    $0x400,%rax
    38a5:	48 8d 14 85 00 00 00 	lea    0x0(,%rax,4),%rdx
    38ac:	00 
    38ad:	48 8d 05 cc 2b 01 00 	lea    0x12bcc(%rip),%rax        # 16480 <crc_table>
    38b4:	8b 04 02             	mov    (%rdx,%rax,1),%eax
    38b7:	c1 e3 08             	shl    $0x8,%ebx
    38ba:	89 da                	mov    %ebx,%edx
    38bc:	31 d0                	xor    %edx,%eax
    38be:	89 c3                	mov    %eax,%ebx
    38c0:	48 83 6d d8 01       	subq   $0x1,-0x28(%rbp)
    38c5:	48 83 7d d8 00       	cmpq   $0x0,-0x28(%rbp)
    38ca:	75 b8                	jne    3884 <crc32_big+0x610>
    38cc:	f7 d3                	not    %ebx
    38ce:	89 da                	mov    %ebx,%edx
    38d0:	c1 ea 18             	shr    $0x18,%edx
    38d3:	89 d8                	mov    %ebx,%eax
    38d5:	c1 e8 08             	shr    $0x8,%eax
    38d8:	25 00 ff 00 00       	and    $0xff00,%eax
    38dd:	01 c2                	add    %eax,%edx
    38df:	89 d8                	mov    %ebx,%eax
    38e1:	c1 e0 08             	shl    $0x8,%eax
    38e4:	25 00 00 ff 00       	and    $0xff0000,%eax
    38e9:	01 c2                	add    %eax,%edx
    38eb:	89 d8                	mov    %ebx,%eax
    38ed:	c1 e0 18             	shl    $0x18,%eax
    38f0:	01 d0                	add    %edx,%eax
    38f2:	89 c0                	mov    %eax,%eax
    38f4:	5b                   	pop    %rbx
    38f5:	41 5c                	pop    %r12
    38f7:	5d                   	pop    %rbp
    38f8:	c3                   	retq   

00000000000038f9 <gf2_matrix_times>:
    38f9:	55                   	push   %rbp
    38fa:	48 89 e5             	mov    %rsp,%rbp
    38fd:	48 89 7d e8          	mov    %rdi,-0x18(%rbp)
    3901:	48 89 75 e0          	mov    %rsi,-0x20(%rbp)
    3905:	48 c7 45 f8 00 00 00 	movq   $0x0,-0x8(%rbp)
    390c:	00 
    390d:	eb 20                	jmp    392f <gf2_matrix_times+0x36>
    390f:	48 8b 45 e0          	mov    -0x20(%rbp),%rax
    3913:	83 e0 01             	and    $0x1,%eax
    3916:	48 85 c0             	test   %rax,%rax
    3919:	74 0b                	je     3926 <gf2_matrix_times+0x2d>
    391b:	48 8b 45 e8          	mov    -0x18(%rbp),%rax
    391f:	48 8b 00             	mov    (%rax),%rax
    3922:	48 31 45 f8          	xor    %rax,-0x8(%rbp)
    3926:	48 d1 6d e0          	shrq   -0x20(%rbp)
    392a:	48 83 45 e8 08       	addq   $0x8,-0x18(%rbp)
    392f:	48 83 7d e0 00       	cmpq   $0x0,-0x20(%rbp)
    3934:	75 d9                	jne    390f <gf2_matrix_times+0x16>
    3936:	48 8b 45 f8          	mov    -0x8(%rbp),%rax
    393a:	5d                   	pop    %rbp
    393b:	c3                   	retq   

000000000000393c <gf2_matrix_square>:
    393c:	55                   	push   %rbp
    393d:	48 89 e5             	mov    %rsp,%rbp
    3940:	53                   	push   %rbx
    3941:	48 83 ec 20          	sub    $0x20,%rsp
    3945:	48 89 7d e0          	mov    %rdi,-0x20(%rbp)
    3949:	48 89 75 d8          	mov    %rsi,-0x28(%rbp)
    394d:	c7 45 f4 00 00 00 00 	movl   $0x0,-0xc(%rbp)
    3954:	eb 42                	jmp    3998 <gf2_matrix_square+0x5c>
    3956:	8b 45 f4             	mov    -0xc(%rbp),%eax
    3959:	48 98                	cltq   
    395b:	48 8d 14 c5 00 00 00 	lea    0x0(,%rax,8),%rdx
    3962:	00 
    3963:	48 8b 45 d8          	mov    -0x28(%rbp),%rax
    3967:	48 01 d0             	add    %rdx,%rax
    396a:	48 8b 10             	mov    (%rax),%rdx
    396d:	8b 45 f4             	mov    -0xc(%rbp),%eax
    3970:	48 98                	cltq   
    3972:	48 8d 0c c5 00 00 00 	lea    0x0(,%rax,8),%rcx
    3979:	00 
    397a:	48 8b 45 e0          	mov    -0x20(%rbp),%rax
    397e:	48 8d 1c 01          	lea    (%rcx,%rax,1),%rbx
    3982:	48 8b 45 d8          	mov    -0x28(%rbp),%rax
    3986:	48 89 d6             	mov    %rdx,%rsi
    3989:	48 89 c7             	mov    %rax,%rdi
    398c:	e8 68 ff ff ff       	callq  38f9 <gf2_matrix_times>
    3991:	48 89 03             	mov    %rax,(%rbx)
    3994:	83 45 f4 01          	addl   $0x1,-0xc(%rbp)
    3998:	83 7d f4 1f          	cmpl   $0x1f,-0xc(%rbp)
    399c:	7e b8                	jle    3956 <gf2_matrix_square+0x1a>
    399e:	90                   	nop
    399f:	48 83 c4 20          	add    $0x20,%rsp
    39a3:	5b                   	pop    %rbx
    39a4:	5d                   	pop    %rbp
    39a5:	c3                   	retq   

00000000000039a6 <crc32_combine_>:
    39a6:	55                   	push   %rbp
    39a7:	48 89 e5             	mov    %rsp,%rbp
    39aa:	48 81 ec 40 02 00 00 	sub    $0x240,%rsp
    39b1:	48 89 bd d8 fd ff ff 	mov    %rdi,-0x228(%rbp)
    39b8:	48 89 b5 d0 fd ff ff 	mov    %rsi,-0x230(%rbp)
    39bf:	48 89 95 c8 fd ff ff 	mov    %rdx,-0x238(%rbp)
    39c6:	64 48 8b 04 25 28 00 	mov    %fs:0x28,%rax
    39cd:	00 00 
    39cf:	48 89 45 f8          	mov    %rax,-0x8(%rbp)
    39d3:	31 c0                	xor    %eax,%eax
    39d5:	48 83 bd c8 fd ff ff 	cmpq   $0x0,-0x238(%rbp)
    39dc:	00 
    39dd:	7f 0c                	jg     39eb <crc32_combine_+0x45>
    39df:	48 8b 85 d8 fd ff ff 	mov    -0x228(%rbp),%rax
    39e6:	e9 51 01 00 00       	jmpq   3b3c <crc32_combine_+0x196>
    39eb:	b8 20 83 b8 ed       	mov    $0xedb88320,%eax
    39f0:	48 89 85 f0 fe ff ff 	mov    %rax,-0x110(%rbp)
    39f7:	48 c7 85 e8 fd ff ff 	movq   $0x1,-0x218(%rbp)
    39fe:	01 00 00 00 
    3a02:	c7 85 e4 fd ff ff 01 	movl   $0x1,-0x21c(%rbp)
    3a09:	00 00 00 
    3a0c:	eb 25                	jmp    3a33 <crc32_combine_+0x8d>
    3a0e:	8b 85 e4 fd ff ff    	mov    -0x21c(%rbp),%eax
    3a14:	48 98                	cltq   
    3a16:	48 8b 95 e8 fd ff ff 	mov    -0x218(%rbp),%rdx
    3a1d:	48 89 94 c5 f0 fe ff 	mov    %rdx,-0x110(%rbp,%rax,8)
    3a24:	ff 
    3a25:	48 d1 a5 e8 fd ff ff 	shlq   -0x218(%rbp)
    3a2c:	83 85 e4 fd ff ff 01 	addl   $0x1,-0x21c(%rbp)
    3a33:	83 bd e4 fd ff ff 1f 	cmpl   $0x1f,-0x21c(%rbp)
    3a3a:	7e d2                	jle    3a0e <crc32_combine_+0x68>
    3a3c:	48 8d 95 f0 fe ff ff 	lea    -0x110(%rbp),%rdx
    3a43:	48 8d 85 f0 fd ff ff 	lea    -0x210(%rbp),%rax
    3a4a:	48 89 d6             	mov    %rdx,%rsi
    3a4d:	48 89 c7             	mov    %rax,%rdi
    3a50:	e8 e7 fe ff ff       	callq  393c <gf2_matrix_square>
    3a55:	48 8d 95 f0 fd ff ff 	lea    -0x210(%rbp),%rdx
    3a5c:	48 8d 85 f0 fe ff ff 	lea    -0x110(%rbp),%rax
    3a63:	48 89 d6             	mov    %rdx,%rsi
    3a66:	48 89 c7             	mov    %rax,%rdi
    3a69:	e8 ce fe ff ff       	callq  393c <gf2_matrix_square>
    3a6e:	48 8d 95 f0 fe ff ff 	lea    -0x110(%rbp),%rdx
    3a75:	48 8d 85 f0 fd ff ff 	lea    -0x210(%rbp),%rax
    3a7c:	48 89 d6             	mov    %rdx,%rsi
    3a7f:	48 89 c7             	mov    %rax,%rdi
    3a82:	e8 b5 fe ff ff       	callq  393c <gf2_matrix_square>
    3a87:	48 8b 85 c8 fd ff ff 	mov    -0x238(%rbp),%rax
    3a8e:	83 e0 01             	and    $0x1,%eax
    3a91:	48 85 c0             	test   %rax,%rax
    3a94:	74 20                	je     3ab6 <crc32_combine_+0x110>
    3a96:	48 8b 95 d8 fd ff ff 	mov    -0x228(%rbp),%rdx
    3a9d:	48 8d 85 f0 fd ff ff 	lea    -0x210(%rbp),%rax
    3aa4:	48 89 d6             	mov    %rdx,%rsi
    3aa7:	48 89 c7             	mov    %rax,%rdi
    3aaa:	e8 4a fe ff ff       	callq  38f9 <gf2_matrix_times>
    3aaf:	48 89 85 d8 fd ff ff 	mov    %rax,-0x228(%rbp)
    3ab6:	48 d1 bd c8 fd ff ff 	sarq   -0x238(%rbp)
    3abd:	48 83 bd c8 fd ff ff 	cmpq   $0x0,-0x238(%rbp)
    3ac4:	00 
    3ac5:	74 5f                	je     3b26 <crc32_combine_+0x180>
    3ac7:	48 8d 95 f0 fd ff ff 	lea    -0x210(%rbp),%rdx
    3ace:	48 8d 85 f0 fe ff ff 	lea    -0x110(%rbp),%rax
    3ad5:	48 89 d6             	mov    %rdx,%rsi
    3ad8:	48 89 c7             	mov    %rax,%rdi
    3adb:	e8 5c fe ff ff       	callq  393c <gf2_matrix_square>
    3ae0:	48 8b 85 c8 fd ff ff 	mov    -0x238(%rbp),%rax
    3ae7:	83 e0 01             	and    $0x1,%eax
    3aea:	48 85 c0             	test   %rax,%rax
    3aed:	74 20                	je     3b0f <crc32_combine_+0x169>
    3aef:	48 8b 95 d8 fd ff ff 	mov    -0x228(%rbp),%rdx
    3af6:	48 8d 85 f0 fe ff ff 	lea    -0x110(%rbp),%rax
    3afd:	48 89 d6             	mov    %rdx,%rsi
    3b00:	48 89 c7             	mov    %rax,%rdi
    3b03:	e8 f1 fd ff ff       	callq  38f9 <gf2_matrix_times>
    3b08:	48 89 85 d8 fd ff ff 	mov    %rax,-0x228(%rbp)
    3b0f:	48 d1 bd c8 fd ff ff 	sarq   -0x238(%rbp)
    3b16:	48 83 bd c8 fd ff ff 	cmpq   $0x0,-0x238(%rbp)
    3b1d:	00 
    3b1e:	0f 85 4a ff ff ff    	jne    3a6e <crc32_combine_+0xc8>
    3b24:	eb 01                	jmp    3b27 <crc32_combine_+0x181>
    3b26:	90                   	nop
    3b27:	48 8b 85 d0 fd ff ff 	mov    -0x230(%rbp),%rax
    3b2e:	48 31 85 d8 fd ff ff 	xor    %rax,-0x228(%rbp)
    3b35:	48 8b 85 d8 fd ff ff 	mov    -0x228(%rbp),%rax
    3b3c:	48 8b 4d f8          	mov    -0x8(%rbp),%rcx
    3b40:	64 48 33 0c 25 28 00 	xor    %fs:0x28,%rcx
    3b47:	00 00 
    3b49:	74 05                	je     3b50 <crc32_combine_+0x1aa>
    3b4b:	e8 00 e6 ff ff       	callq  2150 <__stack_chk_fail@plt>
    3b50:	c9                   	leaveq 
    3b51:	c3                   	retq   

0000000000003b52 <crc32_combine>:
    3b52:	55                   	push   %rbp
    3b53:	48 89 e5             	mov    %rsp,%rbp
    3b56:	48 83 ec 20          	sub    $0x20,%rsp
    3b5a:	48 89 7d f8          	mov    %rdi,-0x8(%rbp)
    3b5e:	48 89 75 f0          	mov    %rsi,-0x10(%rbp)
    3b62:	48 89 55 e8          	mov    %rdx,-0x18(%rbp)
    3b66:	48 8b 55 e8          	mov    -0x18(%rbp),%rdx
    3b6a:	48 8b 4d f0          	mov    -0x10(%rbp),%rcx
    3b6e:	48 8b 45 f8          	mov    -0x8(%rbp),%rax
    3b72:	48 89 ce             	mov    %rcx,%rsi
    3b75:	48 89 c7             	mov    %rax,%rdi
    3b78:	e8 29 fe ff ff       	callq  39a6 <crc32_combine_>
    3b7d:	c9                   	leaveq 
    3b7e:	c3                   	retq   

0000000000003b7f <crc32_combine64>:
    3b7f:	55                   	push   %rbp
    3b80:	48 89 e5             	mov    %rsp,%rbp
    3b83:	48 83 ec 20          	sub    $0x20,%rsp
    3b87:	48 89 7d f8          	mov    %rdi,-0x8(%rbp)
    3b8b:	48 89 75 f0          	mov    %rsi,-0x10(%rbp)
    3b8f:	48 89 55 e8          	mov    %rdx,-0x18(%rbp)
    3b93:	48 8b 55 e8          	mov    -0x18(%rbp),%rdx
    3b97:	48 8b 4d f0          	mov    -0x10(%rbp),%rcx
    3b9b:	48 8b 45 f8          	mov    -0x8(%rbp),%rax
    3b9f:	48 89 ce             	mov    %rcx,%rsi
    3ba2:	48 89 c7             	mov    %rax,%rdi
    3ba5:	e8 fc fd ff ff       	callq  39a6 <crc32_combine_>
    3baa:	c9                   	leaveq 
    3bab:	c3                   	retq   

0000000000003bac <slide_hash>:
    3bac:	55                   	push   %rbp
    3bad:	48 89 e5             	mov    %rsp,%rbp
    3bb0:	48 89 7d d8          	mov    %rdi,-0x28(%rbp)
    3bb4:	48 8b 45 d8          	mov    -0x28(%rbp),%rax
    3bb8:	8b 40 50             	mov    0x50(%rax),%eax
    3bbb:	89 45 f0             	mov    %eax,-0x10(%rbp)
    3bbe:	48 8b 45 d8          	mov    -0x28(%rbp),%rax
    3bc2:	8b 80 84 00 00 00    	mov    0x84(%rax),%eax
    3bc8:	89 45 ec             	mov    %eax,-0x14(%rbp)
    3bcb:	48 8b 45 d8          	mov    -0x28(%rbp),%rax
    3bcf:	48 8b 40 78          	mov    0x78(%rax),%rax
    3bd3:	8b 55 ec             	mov    -0x14(%rbp),%edx
    3bd6:	48 01 d2             	add    %rdx,%rdx
    3bd9:	48 01 d0             	add    %rdx,%rax
    3bdc:	48 89 45 f8          	mov    %rax,-0x8(%rbp)
    3be0:	48 83 6d f8 02       	subq   $0x2,-0x8(%rbp)
    3be5:	48 8b 45 f8          	mov    -0x8(%rbp),%rax
    3be9:	0f b7 00             	movzwl (%rax),%eax
    3bec:	0f b7 c0             	movzwl %ax,%eax
    3bef:	89 45 f4             	mov    %eax,-0xc(%rbp)
    3bf2:	8b 45 f4             	mov    -0xc(%rbp),%eax
    3bf5:	3b 45 f0             	cmp    -0x10(%rbp),%eax
    3bf8:	72 0a                	jb     3c04 <slide_hash+0x58>
    3bfa:	8b 45 f4             	mov    -0xc(%rbp),%eax
    3bfd:	2b 45 f0             	sub    -0x10(%rbp),%eax
    3c00:	89 c2                	mov    %eax,%edx
    3c02:	eb 05                	jmp    3c09 <slide_hash+0x5d>
    3c04:	ba 00 00 00 00       	mov    $0x0,%edx
    3c09:	48 8b 45 f8          	mov    -0x8(%rbp),%rax
    3c0d:	66 89 10             	mov    %dx,(%rax)
    3c10:	83 6d ec 01          	subl   $0x1,-0x14(%rbp)
    3c14:	83 7d ec 00          	cmpl   $0x0,-0x14(%rbp)
    3c18:	75 c6                	jne    3be0 <slide_hash+0x34>
    3c1a:	8b 45 f0             	mov    -0x10(%rbp),%eax
    3c1d:	89 45 ec             	mov    %eax,-0x14(%rbp)
    3c20:	48 8b 45 d8          	mov    -0x28(%rbp),%rax
    3c24:	48 8b 40 70          	mov    0x70(%rax),%rax
    3c28:	8b 55 ec             	mov    -0x14(%rbp),%edx
    3c2b:	48 01 d2             	add    %rdx,%rdx
    3c2e:	48 01 d0             	add    %rdx,%rax
    3c31:	48 89 45 f8          	mov    %rax,-0x8(%rbp)
    3c35:	48 83 6d f8 02       	subq   $0x2,-0x8(%rbp)
    3c3a:	48 8b 45 f8          	mov    -0x8(%rbp),%rax
    3c3e:	0f b7 00             	movzwl (%rax),%eax
    3c41:	0f b7 c0             	movzwl %ax,%eax
    3c44:	89 45 f4             	mov    %eax,-0xc(%rbp)
    3c47:	8b 45 f4             	mov    -0xc(%rbp),%eax
    3c4a:	3b 45 f0             	cmp    -0x10(%rbp),%eax
    3c4d:	72 0a                	jb     3c59 <slide_hash+0xad>
    3c4f:	8b 45 f4             	mov    -0xc(%rbp),%eax
    3c52:	2b 45 f0             	sub    -0x10(%rbp),%eax
    3c55:	89 c2                	mov    %eax,%edx
    3c57:	eb 05                	jmp    3c5e <slide_hash+0xb2>
    3c59:	ba 00 00 00 00       	mov    $0x0,%edx
    3c5e:	48 8b 45 f8          	mov    -0x8(%rbp),%rax
    3c62:	66 89 10             	mov    %dx,(%rax)
    3c65:	83 6d ec 01          	subl   $0x1,-0x14(%rbp)
    3c69:	83 7d ec 00          	cmpl   $0x0,-0x14(%rbp)
    3c6d:	75 c6                	jne    3c35 <slide_hash+0x89>
    3c6f:	90                   	nop
    3c70:	5d                   	pop    %rbp
    3c71:	c3                   	retq   

0000000000003c72 <deflateInit_>:
    3c72:	55                   	push   %rbp
    3c73:	48 89 e5             	mov    %rsp,%rbp
    3c76:	48 83 ec 20          	sub    $0x20,%rsp
    3c7a:	48 89 7d f8          	mov    %rdi,-0x8(%rbp)
    3c7e:	89 75 f4             	mov    %esi,-0xc(%rbp)
    3c81:	48 89 55 e8          	mov    %rdx,-0x18(%rbp)
    3c85:	89 4d f0             	mov    %ecx,-0x10(%rbp)
    3c88:	8b 75 f4             	mov    -0xc(%rbp),%esi
    3c8b:	48 8b 45 f8          	mov    -0x8(%rbp),%rax
    3c8f:	8b 55 f0             	mov    -0x10(%rbp),%edx
    3c92:	52                   	push   %rdx
    3c93:	ff 75 e8             	pushq  -0x18(%rbp)
    3c96:	41 b9 00 00 00 00    	mov    $0x0,%r9d
    3c9c:	41 b8 08 00 00 00    	mov    $0x8,%r8d
    3ca2:	b9 0f 00 00 00       	mov    $0xf,%ecx
    3ca7:	ba 08 00 00 00       	mov    $0x8,%edx
    3cac:	48 89 c7             	mov    %rax,%rdi
    3caf:	e8 0c e5 ff ff       	callq  21c0 <deflateInit2_@plt>
    3cb4:	48 83 c4 10          	add    $0x10,%rsp
    3cb8:	c9                   	leaveq 
    3cb9:	c3                   	retq   

0000000000003cba <deflateInit2_>:
    3cba:	55                   	push   %rbp
    3cbb:	48 89 e5             	mov    %rsp,%rbp
    3cbe:	48 83 ec 40          	sub    $0x40,%rsp
    3cc2:	48 89 7d d8          	mov    %rdi,-0x28(%rbp)
    3cc6:	89 75 d4             	mov    %esi,-0x2c(%rbp)
    3cc9:	89 55 d0             	mov    %edx,-0x30(%rbp)
    3ccc:	89 4d cc             	mov    %ecx,-0x34(%rbp)
    3ccf:	44 89 45 c8          	mov    %r8d,-0x38(%rbp)
    3cd3:	44 89 4d c4          	mov    %r9d,-0x3c(%rbp)
    3cd7:	c7 45 ec 01 00 00 00 	movl   $0x1,-0x14(%rbp)
    3cde:	48 83 7d 10 00       	cmpq   $0x0,0x10(%rbp)
    3ce3:	74 18                	je     3cfd <deflateInit2_+0x43>
    3ce5:	48 8b 45 10          	mov    0x10(%rbp),%rax
    3ce9:	0f b6 10             	movzbl (%rax),%edx
    3cec:	0f b6 05 d5 47 01 00 	movzbl 0x147d5(%rip),%eax        # 184c8 <my_version.3734>
    3cf3:	38 c2                	cmp    %al,%dl
    3cf5:	75 06                	jne    3cfd <deflateInit2_+0x43>
    3cf7:	83 7d 18 70          	cmpl   $0x70,0x18(%rbp)
    3cfb:	74 0a                	je     3d07 <deflateInit2_+0x4d>
    3cfd:	b8 fa ff ff ff       	mov    $0xfffffffa,%eax
    3d02:	e9 e0 03 00 00       	jmpq   40e7 <deflateInit2_+0x42d>
    3d07:	48 83 7d d8 00       	cmpq   $0x0,-0x28(%rbp)
    3d0c:	75 0a                	jne    3d18 <deflateInit2_+0x5e>
    3d0e:	b8 fe ff ff ff       	mov    $0xfffffffe,%eax
    3d13:	e9 cf 03 00 00       	jmpq   40e7 <deflateInit2_+0x42d>
    3d18:	48 8b 45 d8          	mov    -0x28(%rbp),%rax
    3d1c:	48 c7 40 30 00 00 00 	movq   $0x0,0x30(%rax)
    3d23:	00 
    3d24:	48 8b 45 d8          	mov    -0x28(%rbp),%rax
    3d28:	48 8b 40 40          	mov    0x40(%rax),%rax
    3d2c:	48 85 c0             	test   %rax,%rax
    3d2f:	75 1b                	jne    3d4c <deflateInit2_+0x92>
    3d31:	48 8b 45 d8          	mov    -0x28(%rbp),%rax
    3d35:	48 8d 15 91 f1 00 00 	lea    0xf191(%rip),%rdx        # 12ecd <zcalloc>
    3d3c:	48 89 50 40          	mov    %rdx,0x40(%rax)
    3d40:	48 8b 45 d8          	mov    -0x28(%rbp),%rax
    3d44:	48 c7 40 50 00 00 00 	movq   $0x0,0x50(%rax)
    3d4b:	00 
    3d4c:	48 8b 45 d8          	mov    -0x28(%rbp),%rax
    3d50:	48 8b 40 48          	mov    0x48(%rax),%rax
    3d54:	48 85 c0             	test   %rax,%rax
    3d57:	75 0f                	jne    3d68 <deflateInit2_+0xae>
    3d59:	48 8b 45 d8          	mov    -0x28(%rbp),%rax
    3d5d:	48 8d 15 8e f1 00 00 	lea    0xf18e(%rip),%rdx        # 12ef2 <zcfree>
    3d64:	48 89 50 48          	mov    %rdx,0x48(%rax)
    3d68:	83 7d d4 ff          	cmpl   $0xffffffff,-0x2c(%rbp)
    3d6c:	75 07                	jne    3d75 <deflateInit2_+0xbb>
    3d6e:	c7 45 d4 06 00 00 00 	movl   $0x6,-0x2c(%rbp)
    3d75:	83 7d cc 00          	cmpl   $0x0,-0x34(%rbp)
    3d79:	79 0c                	jns    3d87 <deflateInit2_+0xcd>
    3d7b:	c7 45 ec 00 00 00 00 	movl   $0x0,-0x14(%rbp)
    3d82:	f7 5d cc             	negl   -0x34(%rbp)
    3d85:	eb 11                	jmp    3d98 <deflateInit2_+0xde>
    3d87:	83 7d cc 0f          	cmpl   $0xf,-0x34(%rbp)
    3d8b:	7e 0b                	jle    3d98 <deflateInit2_+0xde>
    3d8d:	c7 45 ec 02 00 00 00 	movl   $0x2,-0x14(%rbp)
    3d94:	83 6d cc 10          	subl   $0x10,-0x34(%rbp)
    3d98:	83 7d c8 00          	cmpl   $0x0,-0x38(%rbp)
    3d9c:	7e 3c                	jle    3dda <deflateInit2_+0x120>
    3d9e:	83 7d c8 09          	cmpl   $0x9,-0x38(%rbp)
    3da2:	7f 36                	jg     3dda <deflateInit2_+0x120>
    3da4:	83 7d d0 08          	cmpl   $0x8,-0x30(%rbp)
    3da8:	75 30                	jne    3dda <deflateInit2_+0x120>
    3daa:	83 7d cc 07          	cmpl   $0x7,-0x34(%rbp)
    3dae:	7e 2a                	jle    3dda <deflateInit2_+0x120>
    3db0:	83 7d cc 0f          	cmpl   $0xf,-0x34(%rbp)
    3db4:	7f 24                	jg     3dda <deflateInit2_+0x120>
    3db6:	83 7d d4 00          	cmpl   $0x0,-0x2c(%rbp)
    3dba:	78 1e                	js     3dda <deflateInit2_+0x120>
    3dbc:	83 7d d4 09          	cmpl   $0x9,-0x2c(%rbp)
    3dc0:	7f 18                	jg     3dda <deflateInit2_+0x120>
    3dc2:	83 7d c4 00          	cmpl   $0x0,-0x3c(%rbp)
    3dc6:	78 12                	js     3dda <deflateInit2_+0x120>
    3dc8:	83 7d c4 04          	cmpl   $0x4,-0x3c(%rbp)
    3dcc:	7f 0c                	jg     3dda <deflateInit2_+0x120>
    3dce:	83 7d cc 08          	cmpl   $0x8,-0x34(%rbp)
    3dd2:	75 10                	jne    3de4 <deflateInit2_+0x12a>
    3dd4:	83 7d ec 01          	cmpl   $0x1,-0x14(%rbp)
    3dd8:	74 0a                	je     3de4 <deflateInit2_+0x12a>
    3dda:	b8 fe ff ff ff       	mov    $0xfffffffe,%eax
    3ddf:	e9 03 03 00 00       	jmpq   40e7 <deflateInit2_+0x42d>
    3de4:	83 7d cc 08          	cmpl   $0x8,-0x34(%rbp)
    3de8:	75 07                	jne    3df1 <deflateInit2_+0x137>
    3dea:	c7 45 cc 09 00 00 00 	movl   $0x9,-0x34(%rbp)
    3df1:	48 8b 45 d8          	mov    -0x28(%rbp),%rax
    3df5:	48 8b 40 40          	mov    0x40(%rax),%rax
    3df9:	48 8b 55 d8          	mov    -0x28(%rbp),%rdx
    3dfd:	48 8b 4a 50          	mov    0x50(%rdx),%rcx
    3e01:	ba 40 17 00 00       	mov    $0x1740,%edx
    3e06:	be 01 00 00 00       	mov    $0x1,%esi
    3e0b:	48 89 cf             	mov    %rcx,%rdi
    3e0e:	ff d0                	callq  *%rax
    3e10:	48 89 45 f0          	mov    %rax,-0x10(%rbp)
    3e14:	48 83 7d f0 00       	cmpq   $0x0,-0x10(%rbp)
    3e19:	75 0a                	jne    3e25 <deflateInit2_+0x16b>
    3e1b:	b8 fc ff ff ff       	mov    $0xfffffffc,%eax
    3e20:	e9 c2 02 00 00       	jmpq   40e7 <deflateInit2_+0x42d>
    3e25:	48 8b 45 d8          	mov    -0x28(%rbp),%rax
    3e29:	48 8b 55 f0          	mov    -0x10(%rbp),%rdx
    3e2d:	48 89 50 38          	mov    %rdx,0x38(%rax)
    3e31:	48 8b 45 f0          	mov    -0x10(%rbp),%rax
    3e35:	48 8b 55 d8          	mov    -0x28(%rbp),%rdx
    3e39:	48 89 10             	mov    %rdx,(%rax)
    3e3c:	48 8b 45 f0          	mov    -0x10(%rbp),%rax
    3e40:	c7 40 08 2a 00 00 00 	movl   $0x2a,0x8(%rax)
    3e47:	48 8b 45 f0          	mov    -0x10(%rbp),%rax
    3e4b:	8b 55 ec             	mov    -0x14(%rbp),%edx
    3e4e:	89 50 30             	mov    %edx,0x30(%rax)
    3e51:	48 8b 45 f0          	mov    -0x10(%rbp),%rax
    3e55:	48 c7 40 38 00 00 00 	movq   $0x0,0x38(%rax)
    3e5c:	00 
    3e5d:	8b 55 cc             	mov    -0x34(%rbp),%edx
    3e60:	48 8b 45 f0          	mov    -0x10(%rbp),%rax
    3e64:	89 50 54             	mov    %edx,0x54(%rax)
    3e67:	48 8b 45 f0          	mov    -0x10(%rbp),%rax
    3e6b:	8b 40 54             	mov    0x54(%rax),%eax
    3e6e:	ba 01 00 00 00       	mov    $0x1,%edx
    3e73:	89 c1                	mov    %eax,%ecx
    3e75:	d3 e2                	shl    %cl,%edx
    3e77:	89 d0                	mov    %edx,%eax
    3e79:	89 c2                	mov    %eax,%edx
    3e7b:	48 8b 45 f0          	mov    -0x10(%rbp),%rax
    3e7f:	89 50 50             	mov    %edx,0x50(%rax)
    3e82:	48 8b 45 f0          	mov    -0x10(%rbp),%rax
    3e86:	8b 40 50             	mov    0x50(%rax),%eax
    3e89:	8d 50 ff             	lea    -0x1(%rax),%edx
    3e8c:	48 8b 45 f0          	mov    -0x10(%rbp),%rax
    3e90:	89 50 58             	mov    %edx,0x58(%rax)
    3e93:	8b 45 c8             	mov    -0x38(%rbp),%eax
    3e96:	8d 50 07             	lea    0x7(%rax),%edx
    3e99:	48 8b 45 f0          	mov    -0x10(%rbp),%rax
    3e9d:	89 90 88 00 00 00    	mov    %edx,0x88(%rax)
    3ea3:	48 8b 45 f0          	mov    -0x10(%rbp),%rax
    3ea7:	8b 80 88 00 00 00    	mov    0x88(%rax),%eax
    3ead:	ba 01 00 00 00       	mov    $0x1,%edx
    3eb2:	89 c1                	mov    %eax,%ecx
    3eb4:	d3 e2                	shl    %cl,%edx
    3eb6:	89 d0                	mov    %edx,%eax
    3eb8:	89 c2                	mov    %eax,%edx
    3eba:	48 8b 45 f0          	mov    -0x10(%rbp),%rax
    3ebe:	89 90 84 00 00 00    	mov    %edx,0x84(%rax)
    3ec4:	48 8b 45 f0          	mov    -0x10(%rbp),%rax
    3ec8:	8b 80 84 00 00 00    	mov    0x84(%rax),%eax
    3ece:	8d 50 ff             	lea    -0x1(%rax),%edx
    3ed1:	48 8b 45 f0          	mov    -0x10(%rbp),%rax
    3ed5:	89 90 8c 00 00 00    	mov    %edx,0x8c(%rax)
    3edb:	48 8b 45 f0          	mov    -0x10(%rbp),%rax
    3edf:	8b 80 88 00 00 00    	mov    0x88(%rax),%eax
    3ee5:	83 c0 02             	add    $0x2,%eax
    3ee8:	ba ab aa aa aa       	mov    $0xaaaaaaab,%edx
    3eed:	f7 e2                	mul    %edx
    3eef:	d1 ea                	shr    %edx
    3ef1:	48 8b 45 f0          	mov    -0x10(%rbp),%rax
    3ef5:	89 90 90 00 00 00    	mov    %edx,0x90(%rax)
    3efb:	48 8b 45 d8          	mov    -0x28(%rbp),%rax
    3eff:	48 8b 40 40          	mov    0x40(%rax),%rax
    3f03:	48 8b 55 f0          	mov    -0x10(%rbp),%rdx
    3f07:	8b 72 50             	mov    0x50(%rdx),%esi
    3f0a:	48 8b 55 d8          	mov    -0x28(%rbp),%rdx
    3f0e:	48 8b 4a 50          	mov    0x50(%rdx),%rcx
    3f12:	ba 02 00 00 00       	mov    $0x2,%edx
    3f17:	48 89 cf             	mov    %rcx,%rdi
    3f1a:	ff d0                	callq  *%rax
    3f1c:	48 89 c2             	mov    %rax,%rdx
    3f1f:	48 8b 45 f0          	mov    -0x10(%rbp),%rax
    3f23:	48 89 50 60          	mov    %rdx,0x60(%rax)
    3f27:	48 8b 45 d8          	mov    -0x28(%rbp),%rax
    3f2b:	48 8b 40 40          	mov    0x40(%rax),%rax
    3f2f:	48 8b 55 f0          	mov    -0x10(%rbp),%rdx
    3f33:	8b 72 50             	mov    0x50(%rdx),%esi
    3f36:	48 8b 55 d8          	mov    -0x28(%rbp),%rdx
    3f3a:	48 8b 4a 50          	mov    0x50(%rdx),%rcx
    3f3e:	ba 02 00 00 00       	mov    $0x2,%edx
    3f43:	48 89 cf             	mov    %rcx,%rdi
    3f46:	ff d0                	callq  *%rax
    3f48:	48 89 c2             	mov    %rax,%rdx
    3f4b:	48 8b 45 f0          	mov    -0x10(%rbp),%rax
    3f4f:	48 89 50 70          	mov    %rdx,0x70(%rax)
    3f53:	48 8b 45 d8          	mov    -0x28(%rbp),%rax
    3f57:	48 8b 40 40          	mov    0x40(%rax),%rax
    3f5b:	48 8b 55 f0          	mov    -0x10(%rbp),%rdx
    3f5f:	8b b2 84 00 00 00    	mov    0x84(%rdx),%esi
    3f65:	48 8b 55 d8          	mov    -0x28(%rbp),%rdx
    3f69:	48 8b 4a 50          	mov    0x50(%rdx),%rcx
    3f6d:	ba 02 00 00 00       	mov    $0x2,%edx
    3f72:	48 89 cf             	mov    %rcx,%rdi
    3f75:	ff d0                	callq  *%rax
    3f77:	48 89 c2             	mov    %rax,%rdx
    3f7a:	48 8b 45 f0          	mov    -0x10(%rbp),%rax
    3f7e:	48 89 50 78          	mov    %rdx,0x78(%rax)
    3f82:	48 8b 45 f0          	mov    -0x10(%rbp),%rax
    3f86:	48 c7 80 38 17 00 00 	movq   $0x0,0x1738(%rax)
    3f8d:	00 00 00 00 
    3f91:	8b 45 c8             	mov    -0x38(%rbp),%eax
    3f94:	83 c0 06             	add    $0x6,%eax
    3f97:	ba 01 00 00 00       	mov    $0x1,%edx
    3f9c:	89 c1                	mov    %eax,%ecx
    3f9e:	d3 e2                	shl    %cl,%edx
    3fa0:	89 d0                	mov    %edx,%eax
    3fa2:	89 c2                	mov    %eax,%edx
    3fa4:	48 8b 45 f0          	mov    -0x10(%rbp),%rax
    3fa8:	89 90 08 17 00 00    	mov    %edx,0x1708(%rax)
    3fae:	48 8b 45 d8          	mov    -0x28(%rbp),%rax
    3fb2:	48 8b 40 40          	mov    0x40(%rax),%rax
    3fb6:	48 8b 55 f0          	mov    -0x10(%rbp),%rdx
    3fba:	8b b2 08 17 00 00    	mov    0x1708(%rdx),%esi
    3fc0:	48 8b 55 d8          	mov    -0x28(%rbp),%rdx
    3fc4:	48 8b 4a 50          	mov    0x50(%rdx),%rcx
    3fc8:	ba 04 00 00 00       	mov    $0x4,%edx
    3fcd:	48 89 cf             	mov    %rcx,%rdi
    3fd0:	ff d0                	callq  *%rax
    3fd2:	48 89 45 f8          	mov    %rax,-0x8(%rbp)
    3fd6:	48 8b 45 f0          	mov    -0x10(%rbp),%rax
    3fda:	48 8b 55 f8          	mov    -0x8(%rbp),%rdx
    3fde:	48 89 50 10          	mov    %rdx,0x10(%rax)
    3fe2:	48 8b 45 f0          	mov    -0x10(%rbp),%rax
    3fe6:	8b 80 08 17 00 00    	mov    0x1708(%rax),%eax
    3fec:	89 c0                	mov    %eax,%eax
    3fee:	48 8d 14 85 00 00 00 	lea    0x0(,%rax,4),%rdx
    3ff5:	00 
    3ff6:	48 8b 45 f0          	mov    -0x10(%rbp),%rax
    3ffa:	48 89 50 18          	mov    %rdx,0x18(%rax)
    3ffe:	48 8b 45 f0          	mov    -0x10(%rbp),%rax
    4002:	48 8b 40 60          	mov    0x60(%rax),%rax
    4006:	48 85 c0             	test   %rax,%rax
    4009:	74 27                	je     4032 <deflateInit2_+0x378>
    400b:	48 8b 45 f0          	mov    -0x10(%rbp),%rax
    400f:	48 8b 40 70          	mov    0x70(%rax),%rax
    4013:	48 85 c0             	test   %rax,%rax
    4016:	74 1a                	je     4032 <deflateInit2_+0x378>
    4018:	48 8b 45 f0          	mov    -0x10(%rbp),%rax
    401c:	48 8b 40 78          	mov    0x78(%rax),%rax
    4020:	48 85 c0             	test   %rax,%rax
    4023:	74 0d                	je     4032 <deflateInit2_+0x378>
    4025:	48 8b 45 f0          	mov    -0x10(%rbp),%rax
    4029:	48 8b 40 10          	mov    0x10(%rax),%rax
    402d:	48 85 c0             	test   %rax,%rax
    4030:	75 34                	jne    4066 <deflateInit2_+0x3ac>
    4032:	48 8b 45 f0          	mov    -0x10(%rbp),%rax
    4036:	c7 40 08 9a 02 00 00 	movl   $0x29a,0x8(%rax)
    403d:	48 8d 05 5c 8d 21 00 	lea    0x218d5c(%rip),%rax        # 21cda0 <z_errmsg>
    4044:	48 8b 50 30          	mov    0x30(%rax),%rdx
    4048:	48 8b 45 d8          	mov    -0x28(%rbp),%rax
    404c:	48 89 50 30          	mov    %rdx,0x30(%rax)
    4050:	48 8b 45 d8          	mov    -0x28(%rbp),%rax
    4054:	48 89 c7             	mov    %rax,%rdi
    4057:	e8 14 e2 ff ff       	callq  2270 <deflateEnd@plt>
    405c:	b8 fc ff ff ff       	mov    $0xfffffffc,%eax
    4061:	e9 81 00 00 00       	jmpq   40e7 <deflateInit2_+0x42d>
    4066:	48 8b 45 f0          	mov    -0x10(%rbp),%rax
    406a:	8b 80 08 17 00 00    	mov    0x1708(%rax),%eax
    4070:	d1 e8                	shr    %eax
    4072:	89 c0                	mov    %eax,%eax
    4074:	48 8d 14 00          	lea    (%rax,%rax,1),%rdx
    4078:	48 8b 45 f8          	mov    -0x8(%rbp),%rax
    407c:	48 01 c2             	add    %rax,%rdx
    407f:	48 8b 45 f0          	mov    -0x10(%rbp),%rax
    4083:	48 89 90 10 17 00 00 	mov    %rdx,0x1710(%rax)
    408a:	48 8b 45 f0          	mov    -0x10(%rbp),%rax
    408e:	48 8b 50 10          	mov    0x10(%rax),%rdx
    4092:	48 8b 45 f0          	mov    -0x10(%rbp),%rax
    4096:	8b 80 08 17 00 00    	mov    0x1708(%rax),%eax
    409c:	89 c1                	mov    %eax,%ecx
    409e:	48 89 c8             	mov    %rcx,%rax
    40a1:	48 01 c0             	add    %rax,%rax
    40a4:	48 01 c8             	add    %rcx,%rax
    40a7:	48 01 c2             	add    %rax,%rdx
    40aa:	48 8b 45 f0          	mov    -0x10(%rbp),%rax
    40ae:	48 89 90 00 17 00 00 	mov    %rdx,0x1700(%rax)
    40b5:	48 8b 45 f0          	mov    -0x10(%rbp),%rax
    40b9:	8b 55 d4             	mov    -0x2c(%rbp),%edx
    40bc:	89 90 c4 00 00 00    	mov    %edx,0xc4(%rax)
    40c2:	48 8b 45 f0          	mov    -0x10(%rbp),%rax
    40c6:	8b 55 c4             	mov    -0x3c(%rbp),%edx
    40c9:	89 90 c8 00 00 00    	mov    %edx,0xc8(%rax)
    40cf:	8b 45 d0             	mov    -0x30(%rbp),%eax
    40d2:	89 c2                	mov    %eax,%edx
    40d4:	48 8b 45 f0          	mov    -0x10(%rbp),%rax
    40d8:	88 50 48             	mov    %dl,0x48(%rax)
    40db:	48 8b 45 d8          	mov    -0x28(%rbp),%rax
    40df:	48 89 c7             	mov    %rax,%rdi
    40e2:	e8 89 e0 ff ff       	callq  2170 <deflateReset@plt>
    40e7:	c9                   	leaveq 
    40e8:	c3                   	retq   

00000000000040e9 <deflateStateCheck>:
    40e9:	55                   	push   %rbp
    40ea:	48 89 e5             	mov    %rsp,%rbp
    40ed:	48 89 7d e8          	mov    %rdi,-0x18(%rbp)
    40f1:	48 83 7d e8 00       	cmpq   $0x0,-0x18(%rbp)
    40f6:	74 1a                	je     4112 <deflateStateCheck+0x29>
    40f8:	48 8b 45 e8          	mov    -0x18(%rbp),%rax
    40fc:	48 8b 40 40          	mov    0x40(%rax),%rax
    4100:	48 85 c0             	test   %rax,%rax
    4103:	74 0d                	je     4112 <deflateStateCheck+0x29>
    4105:	48 8b 45 e8          	mov    -0x18(%rbp),%rax
    4109:	48 8b 40 48          	mov    0x48(%rax),%rax
    410d:	48 85 c0             	test   %rax,%rax
    4110:	75 0a                	jne    411c <deflateStateCheck+0x33>
    4112:	b8 01 00 00 00       	mov    $0x1,%eax
    4117:	e9 8e 00 00 00       	jmpq   41aa <deflateStateCheck+0xc1>
    411c:	48 8b 45 e8          	mov    -0x18(%rbp),%rax
    4120:	48 8b 40 38          	mov    0x38(%rax),%rax
    4124:	48 89 45 f8          	mov    %rax,-0x8(%rbp)
    4128:	48 83 7d f8 00       	cmpq   $0x0,-0x8(%rbp)
    412d:	74 6f                	je     419e <deflateStateCheck+0xb5>
    412f:	48 8b 45 f8          	mov    -0x8(%rbp),%rax
    4133:	48 8b 00             	mov    (%rax),%rax
    4136:	48 39 45 e8          	cmp    %rax,-0x18(%rbp)
    413a:	75 62                	jne    419e <deflateStateCheck+0xb5>
    413c:	48 8b 45 f8          	mov    -0x8(%rbp),%rax
    4140:	8b 40 08             	mov    0x8(%rax),%eax
    4143:	83 f8 2a             	cmp    $0x2a,%eax
    4146:	74 5d                	je     41a5 <deflateStateCheck+0xbc>
    4148:	48 8b 45 f8          	mov    -0x8(%rbp),%rax
    414c:	8b 40 08             	mov    0x8(%rax),%eax
    414f:	83 f8 39             	cmp    $0x39,%eax
    4152:	74 51                	je     41a5 <deflateStateCheck+0xbc>
    4154:	48 8b 45 f8          	mov    -0x8(%rbp),%rax
    4158:	8b 40 08             	mov    0x8(%rax),%eax
    415b:	83 f8 45             	cmp    $0x45,%eax
    415e:	74 45                	je     41a5 <deflateStateCheck+0xbc>
    4160:	48 8b 45 f8          	mov    -0x8(%rbp),%rax
    4164:	8b 40 08             	mov    0x8(%rax),%eax
    4167:	83 f8 49             	cmp    $0x49,%eax
    416a:	74 39                	je     41a5 <deflateStateCheck+0xbc>
    416c:	48 8b 45 f8          	mov    -0x8(%rbp),%rax
    4170:	8b 40 08             	mov    0x8(%rax),%eax
    4173:	83 f8 5b             	cmp    $0x5b,%eax
    4176:	74 2d                	je     41a5 <deflateStateCheck+0xbc>
    4178:	48 8b 45 f8          	mov    -0x8(%rbp),%rax
    417c:	8b 40 08             	mov    0x8(%rax),%eax
    417f:	83 f8 67             	cmp    $0x67,%eax
    4182:	74 21                	je     41a5 <deflateStateCheck+0xbc>
    4184:	48 8b 45 f8          	mov    -0x8(%rbp),%rax
    4188:	8b 40 08             	mov    0x8(%rax),%eax
    418b:	83 f8 71             	cmp    $0x71,%eax
    418e:	74 15                	je     41a5 <deflateStateCheck+0xbc>
    4190:	48 8b 45 f8          	mov    -0x8(%rbp),%rax
    4194:	8b 40 08             	mov    0x8(%rax),%eax
    4197:	3d 9a 02 00 00       	cmp    $0x29a,%eax
    419c:	74 07                	je     41a5 <deflateStateCheck+0xbc>
    419e:	b8 01 00 00 00       	mov    $0x1,%eax
    41a3:	eb 05                	jmp    41aa <deflateStateCheck+0xc1>
    41a5:	b8 00 00 00 00       	mov    $0x0,%eax
    41aa:	5d                   	pop    %rbp
    41ab:	c3                   	retq   

00000000000041ac <deflateSetDictionary>:
    41ac:	55                   	push   %rbp
    41ad:	48 89 e5             	mov    %rsp,%rbp
    41b0:	48 83 ec 40          	sub    $0x40,%rsp
    41b4:	48 89 7d d8          	mov    %rdi,-0x28(%rbp)
    41b8:	48 89 75 d0          	mov    %rsi,-0x30(%rbp)
    41bc:	89 55 cc             	mov    %edx,-0x34(%rbp)
    41bf:	48 8b 45 d8          	mov    -0x28(%rbp),%rax
    41c3:	48 89 c7             	mov    %rax,%rdi
    41c6:	e8 1e ff ff ff       	callq  40e9 <deflateStateCheck>
    41cb:	85 c0                	test   %eax,%eax
    41cd:	75 07                	jne    41d6 <deflateSetDictionary+0x2a>
    41cf:	48 83 7d d0 00       	cmpq   $0x0,-0x30(%rbp)
    41d4:	75 0a                	jne    41e0 <deflateSetDictionary+0x34>
    41d6:	b8 fe ff ff ff       	mov    $0xfffffffe,%eax
    41db:	e9 1e 03 00 00       	jmpq   44fe <deflateSetDictionary+0x352>
    41e0:	48 8b 45 d8          	mov    -0x28(%rbp),%rax
    41e4:	48 8b 40 38          	mov    0x38(%rax),%rax
    41e8:	48 89 45 f0          	mov    %rax,-0x10(%rbp)
    41ec:	48 8b 45 f0          	mov    -0x10(%rbp),%rax
    41f0:	8b 40 30             	mov    0x30(%rax),%eax
    41f3:	89 45 e8             	mov    %eax,-0x18(%rbp)
    41f6:	83 7d e8 02          	cmpl   $0x2,-0x18(%rbp)
    41fa:	74 20                	je     421c <deflateSetDictionary+0x70>
    41fc:	83 7d e8 01          	cmpl   $0x1,-0x18(%rbp)
    4200:	75 0c                	jne    420e <deflateSetDictionary+0x62>
    4202:	48 8b 45 f0          	mov    -0x10(%rbp),%rax
    4206:	8b 40 08             	mov    0x8(%rax),%eax
    4209:	83 f8 2a             	cmp    $0x2a,%eax
    420c:	75 0e                	jne    421c <deflateSetDictionary+0x70>
    420e:	48 8b 45 f0          	mov    -0x10(%rbp),%rax
    4212:	8b 80 b4 00 00 00    	mov    0xb4(%rax),%eax
    4218:	85 c0                	test   %eax,%eax
    421a:	74 0a                	je     4226 <deflateSetDictionary+0x7a>
    421c:	b8 fe ff ff ff       	mov    $0xfffffffe,%eax
    4221:	e9 d8 02 00 00       	jmpq   44fe <deflateSetDictionary+0x352>
    4226:	83 7d e8 01          	cmpl   $0x1,-0x18(%rbp)
    422a:	75 25                	jne    4251 <deflateSetDictionary+0xa5>
    422c:	48 8b 45 d8          	mov    -0x28(%rbp),%rax
    4230:	48 8b 40 60          	mov    0x60(%rax),%rax
    4234:	8b 55 cc             	mov    -0x34(%rbp),%edx
    4237:	48 8b 4d d0          	mov    -0x30(%rbp),%rcx
    423b:	48 89 ce             	mov    %rcx,%rsi
    423e:	48 89 c7             	mov    %rax,%rdi
    4241:	e8 fa df ff ff       	callq  2240 <adler32@plt>
    4246:	48 89 c2             	mov    %rax,%rdx
    4249:	48 8b 45 d8          	mov    -0x28(%rbp),%rax
    424d:	48 89 50 60          	mov    %rdx,0x60(%rax)
    4251:	48 8b 45 f0          	mov    -0x10(%rbp),%rax
    4255:	c7 40 30 00 00 00 00 	movl   $0x0,0x30(%rax)
    425c:	48 8b 45 f0          	mov    -0x10(%rbp),%rax
    4260:	8b 40 50             	mov    0x50(%rax),%eax
    4263:	39 45 cc             	cmp    %eax,-0x34(%rbp)
    4266:	0f 82 99 00 00 00    	jb     4305 <deflateSetDictionary+0x159>
    426c:	83 7d e8 00          	cmpl   $0x0,-0x18(%rbp)
    4270:	75 75                	jne    42e7 <deflateSetDictionary+0x13b>
    4272:	48 8b 45 f0          	mov    -0x10(%rbp),%rax
    4276:	48 8b 50 78          	mov    0x78(%rax),%rdx
    427a:	48 8b 45 f0          	mov    -0x10(%rbp),%rax
    427e:	8b 80 84 00 00 00    	mov    0x84(%rax),%eax
    4284:	83 e8 01             	sub    $0x1,%eax
    4287:	89 c0                	mov    %eax,%eax
    4289:	48 01 c0             	add    %rax,%rax
    428c:	48 01 d0             	add    %rdx,%rax
    428f:	66 c7 00 00 00       	movw   $0x0,(%rax)
    4294:	48 8b 45 f0          	mov    -0x10(%rbp),%rax
    4298:	8b 80 84 00 00 00    	mov    0x84(%rax),%eax
    429e:	83 e8 01             	sub    $0x1,%eax
    42a1:	89 c0                	mov    %eax,%eax
    42a3:	48 8d 14 00          	lea    (%rax,%rax,1),%rdx
    42a7:	48 8b 45 f0          	mov    -0x10(%rbp),%rax
    42ab:	48 8b 40 78          	mov    0x78(%rax),%rax
    42af:	be 00 00 00 00       	mov    $0x0,%esi
    42b4:	48 89 c7             	mov    %rax,%rdi
    42b7:	e8 d4 de ff ff       	callq  2190 <memset@plt>
    42bc:	48 8b 45 f0          	mov    -0x10(%rbp),%rax
    42c0:	c7 80 ac 00 00 00 00 	movl   $0x0,0xac(%rax)
    42c7:	00 00 00 
    42ca:	48 8b 45 f0          	mov    -0x10(%rbp),%rax
    42ce:	48 c7 80 98 00 00 00 	movq   $0x0,0x98(%rax)
    42d5:	00 00 00 00 
    42d9:	48 8b 45 f0          	mov    -0x10(%rbp),%rax
    42dd:	c7 80 2c 17 00 00 00 	movl   $0x0,0x172c(%rax)
    42e4:	00 00 00 
    42e7:	48 8b 45 f0          	mov    -0x10(%rbp),%rax
    42eb:	8b 40 50             	mov    0x50(%rax),%eax
    42ee:	8b 55 cc             	mov    -0x34(%rbp),%edx
    42f1:	29 c2                	sub    %eax,%edx
    42f3:	89 d0                	mov    %edx,%eax
    42f5:	89 c0                	mov    %eax,%eax
    42f7:	48 01 45 d0          	add    %rax,-0x30(%rbp)
    42fb:	48 8b 45 f0          	mov    -0x10(%rbp),%rax
    42ff:	8b 40 50             	mov    0x50(%rax),%eax
    4302:	89 45 cc             	mov    %eax,-0x34(%rbp)
    4305:	48 8b 45 d8          	mov    -0x28(%rbp),%rax
    4309:	8b 40 08             	mov    0x8(%rax),%eax
    430c:	89 45 ec             	mov    %eax,-0x14(%rbp)
    430f:	48 8b 45 d8          	mov    -0x28(%rbp),%rax
    4313:	48 8b 00             	mov    (%rax),%rax
    4316:	48 89 45 f8          	mov    %rax,-0x8(%rbp)
    431a:	48 8b 45 d8          	mov    -0x28(%rbp),%rax
    431e:	8b 55 cc             	mov    -0x34(%rbp),%edx
    4321:	89 50 08             	mov    %edx,0x8(%rax)
    4324:	48 8b 45 d8          	mov    -0x28(%rbp),%rax
    4328:	48 8b 55 d0          	mov    -0x30(%rbp),%rdx
    432c:	48 89 10             	mov    %rdx,(%rax)
    432f:	48 8b 45 f0          	mov    -0x10(%rbp),%rax
    4333:	48 89 c7             	mov    %rax,%rdi
    4336:	e8 5f 28 00 00       	callq  6b9a <fill_window>
    433b:	e9 fe 00 00 00       	jmpq   443e <deflateSetDictionary+0x292>
    4340:	48 8b 45 f0          	mov    -0x10(%rbp),%rax
    4344:	8b 80 ac 00 00 00    	mov    0xac(%rax),%eax
    434a:	89 45 e0             	mov    %eax,-0x20(%rbp)
    434d:	48 8b 45 f0          	mov    -0x10(%rbp),%rax
    4351:	8b 80 b4 00 00 00    	mov    0xb4(%rax),%eax
    4357:	83 e8 02             	sub    $0x2,%eax
    435a:	89 45 e4             	mov    %eax,-0x1c(%rbp)
    435d:	48 8b 45 f0          	mov    -0x10(%rbp),%rax
    4361:	8b 90 80 00 00 00    	mov    0x80(%rax),%edx
    4367:	48 8b 45 f0          	mov    -0x10(%rbp),%rax
    436b:	8b 80 90 00 00 00    	mov    0x90(%rax),%eax
    4371:	89 c1                	mov    %eax,%ecx
    4373:	d3 e2                	shl    %cl,%edx
    4375:	89 d1                	mov    %edx,%ecx
    4377:	48 8b 45 f0          	mov    -0x10(%rbp),%rax
    437b:	48 8b 40 60          	mov    0x60(%rax),%rax
    437f:	8b 55 e0             	mov    -0x20(%rbp),%edx
    4382:	83 c2 02             	add    $0x2,%edx
    4385:	89 d2                	mov    %edx,%edx
    4387:	48 01 d0             	add    %rdx,%rax
    438a:	0f b6 00             	movzbl (%rax),%eax
    438d:	0f b6 c0             	movzbl %al,%eax
    4390:	31 c1                	xor    %eax,%ecx
    4392:	89 ca                	mov    %ecx,%edx
    4394:	48 8b 45 f0          	mov    -0x10(%rbp),%rax
    4398:	8b 80 8c 00 00 00    	mov    0x8c(%rax),%eax
    439e:	21 c2                	and    %eax,%edx
    43a0:	48 8b 45 f0          	mov    -0x10(%rbp),%rax
    43a4:	89 90 80 00 00 00    	mov    %edx,0x80(%rax)
    43aa:	48 8b 45 f0          	mov    -0x10(%rbp),%rax
    43ae:	48 8b 50 78          	mov    0x78(%rax),%rdx
    43b2:	48 8b 45 f0          	mov    -0x10(%rbp),%rax
    43b6:	8b 80 80 00 00 00    	mov    0x80(%rax),%eax
    43bc:	89 c0                	mov    %eax,%eax
    43be:	48 01 c0             	add    %rax,%rax
    43c1:	48 8d 0c 02          	lea    (%rdx,%rax,1),%rcx
    43c5:	48 8b 45 f0          	mov    -0x10(%rbp),%rax
    43c9:	48 8b 50 70          	mov    0x70(%rax),%rdx
    43cd:	48 8b 45 f0          	mov    -0x10(%rbp),%rax
    43d1:	8b 40 58             	mov    0x58(%rax),%eax
    43d4:	23 45 e0             	and    -0x20(%rbp),%eax
    43d7:	89 c0                	mov    %eax,%eax
    43d9:	48 01 c0             	add    %rax,%rax
    43dc:	48 01 c2             	add    %rax,%rdx
    43df:	0f b7 01             	movzwl (%rcx),%eax
    43e2:	66 89 02             	mov    %ax,(%rdx)
    43e5:	48 8b 45 f0          	mov    -0x10(%rbp),%rax
    43e9:	48 8b 50 78          	mov    0x78(%rax),%rdx
    43ed:	48 8b 45 f0          	mov    -0x10(%rbp),%rax
    43f1:	8b 80 80 00 00 00    	mov    0x80(%rax),%eax
    43f7:	89 c0                	mov    %eax,%eax
    43f9:	48 01 c0             	add    %rax,%rax
    43fc:	48 01 d0             	add    %rdx,%rax
    43ff:	8b 55 e0             	mov    -0x20(%rbp),%edx
    4402:	66 89 10             	mov    %dx,(%rax)
    4405:	83 45 e0 01          	addl   $0x1,-0x20(%rbp)
    4409:	83 6d e4 01          	subl   $0x1,-0x1c(%rbp)
    440d:	83 7d e4 00          	cmpl   $0x0,-0x1c(%rbp)
    4411:	0f 85 46 ff ff ff    	jne    435d <deflateSetDictionary+0x1b1>
    4417:	48 8b 45 f0          	mov    -0x10(%rbp),%rax
    441b:	8b 55 e0             	mov    -0x20(%rbp),%edx
    441e:	89 90 ac 00 00 00    	mov    %edx,0xac(%rax)
    4424:	48 8b 45 f0          	mov    -0x10(%rbp),%rax
    4428:	c7 80 b4 00 00 00 02 	movl   $0x2,0xb4(%rax)
    442f:	00 00 00 
    4432:	48 8b 45 f0          	mov    -0x10(%rbp),%rax
    4436:	48 89 c7             	mov    %rax,%rdi
    4439:	e8 5c 27 00 00       	callq  6b9a <fill_window>
    443e:	48 8b 45 f0          	mov    -0x10(%rbp),%rax
    4442:	8b 80 b4 00 00 00    	mov    0xb4(%rax),%eax
    4448:	83 f8 02             	cmp    $0x2,%eax
    444b:	0f 87 ef fe ff ff    	ja     4340 <deflateSetDictionary+0x194>
    4451:	48 8b 45 f0          	mov    -0x10(%rbp),%rax
    4455:	8b 90 ac 00 00 00    	mov    0xac(%rax),%edx
    445b:	48 8b 45 f0          	mov    -0x10(%rbp),%rax
    445f:	8b 80 b4 00 00 00    	mov    0xb4(%rax),%eax
    4465:	01 c2                	add    %eax,%edx
    4467:	48 8b 45 f0          	mov    -0x10(%rbp),%rax
    446b:	89 90 ac 00 00 00    	mov    %edx,0xac(%rax)
    4471:	48 8b 45 f0          	mov    -0x10(%rbp),%rax
    4475:	8b 80 ac 00 00 00    	mov    0xac(%rax),%eax
    447b:	89 c2                	mov    %eax,%edx
    447d:	48 8b 45 f0          	mov    -0x10(%rbp),%rax
    4481:	48 89 90 98 00 00 00 	mov    %rdx,0x98(%rax)
    4488:	48 8b 45 f0          	mov    -0x10(%rbp),%rax
    448c:	8b 90 b4 00 00 00    	mov    0xb4(%rax),%edx
    4492:	48 8b 45 f0          	mov    -0x10(%rbp),%rax
    4496:	89 90 2c 17 00 00    	mov    %edx,0x172c(%rax)
    449c:	48 8b 45 f0          	mov    -0x10(%rbp),%rax
    44a0:	c7 80 b4 00 00 00 00 	movl   $0x0,0xb4(%rax)
    44a7:	00 00 00 
    44aa:	48 8b 45 f0          	mov    -0x10(%rbp),%rax
    44ae:	c7 80 b8 00 00 00 02 	movl   $0x2,0xb8(%rax)
    44b5:	00 00 00 
    44b8:	48 8b 45 f0          	mov    -0x10(%rbp),%rax
    44bc:	8b 90 b8 00 00 00    	mov    0xb8(%rax),%edx
    44c2:	48 8b 45 f0          	mov    -0x10(%rbp),%rax
    44c6:	89 90 a0 00 00 00    	mov    %edx,0xa0(%rax)
    44cc:	48 8b 45 f0          	mov    -0x10(%rbp),%rax
    44d0:	c7 80 a8 00 00 00 00 	movl   $0x0,0xa8(%rax)
    44d7:	00 00 00 
    44da:	48 8b 45 d8          	mov    -0x28(%rbp),%rax
    44de:	48 8b 55 f8          	mov    -0x8(%rbp),%rdx
    44e2:	48 89 10             	mov    %rdx,(%rax)
    44e5:	48 8b 45 d8          	mov    -0x28(%rbp),%rax
    44e9:	8b 55 ec             	mov    -0x14(%rbp),%edx
    44ec:	89 50 08             	mov    %edx,0x8(%rax)
    44ef:	48 8b 45 f0          	mov    -0x10(%rbp),%rax
    44f3:	8b 55 e8             	mov    -0x18(%rbp),%edx
    44f6:	89 50 30             	mov    %edx,0x30(%rax)
    44f9:	b8 00 00 00 00       	mov    $0x0,%eax
    44fe:	c9                   	leaveq 
    44ff:	c3                   	retq   

0000000000004500 <deflateGetDictionary>:
    4500:	55                   	push   %rbp
    4501:	48 89 e5             	mov    %rsp,%rbp
    4504:	48 83 ec 30          	sub    $0x30,%rsp
    4508:	48 89 7d e8          	mov    %rdi,-0x18(%rbp)
    450c:	48 89 75 e0          	mov    %rsi,-0x20(%rbp)
    4510:	48 89 55 d8          	mov    %rdx,-0x28(%rbp)
    4514:	48 8b 45 e8          	mov    -0x18(%rbp),%rax
    4518:	48 89 c7             	mov    %rax,%rdi
    451b:	e8 c9 fb ff ff       	callq  40e9 <deflateStateCheck>
    4520:	85 c0                	test   %eax,%eax
    4522:	74 0a                	je     452e <deflateGetDictionary+0x2e>
    4524:	b8 fe ff ff ff       	mov    $0xfffffffe,%eax
    4529:	e9 9e 00 00 00       	jmpq   45cc <deflateGetDictionary+0xcc>
    452e:	48 8b 45 e8          	mov    -0x18(%rbp),%rax
    4532:	48 8b 40 38          	mov    0x38(%rax),%rax
    4536:	48 89 45 f8          	mov    %rax,-0x8(%rbp)
    453a:	48 8b 45 f8          	mov    -0x8(%rbp),%rax
    453e:	8b 90 ac 00 00 00    	mov    0xac(%rax),%edx
    4544:	48 8b 45 f8          	mov    -0x8(%rbp),%rax
    4548:	8b 80 b4 00 00 00    	mov    0xb4(%rax),%eax
    454e:	01 d0                	add    %edx,%eax
    4550:	89 45 f4             	mov    %eax,-0xc(%rbp)
    4553:	48 8b 45 f8          	mov    -0x8(%rbp),%rax
    4557:	8b 40 50             	mov    0x50(%rax),%eax
    455a:	39 45 f4             	cmp    %eax,-0xc(%rbp)
    455d:	76 0a                	jbe    4569 <deflateGetDictionary+0x69>
    455f:	48 8b 45 f8          	mov    -0x8(%rbp),%rax
    4563:	8b 40 50             	mov    0x50(%rax),%eax
    4566:	89 45 f4             	mov    %eax,-0xc(%rbp)
    4569:	48 83 7d e0 00       	cmpq   $0x0,-0x20(%rbp)
    456e:	74 47                	je     45b7 <deflateGetDictionary+0xb7>
    4570:	83 7d f4 00          	cmpl   $0x0,-0xc(%rbp)
    4574:	74 41                	je     45b7 <deflateGetDictionary+0xb7>
    4576:	8b 55 f4             	mov    -0xc(%rbp),%edx
    4579:	48 8b 45 f8          	mov    -0x8(%rbp),%rax
    457d:	48 8b 48 60          	mov    0x60(%rax),%rcx
    4581:	48 8b 45 f8          	mov    -0x8(%rbp),%rax
    4585:	8b 80 ac 00 00 00    	mov    0xac(%rax),%eax
    458b:	89 c6                	mov    %eax,%esi
    458d:	48 8b 45 f8          	mov    -0x8(%rbp),%rax
    4591:	8b 80 b4 00 00 00    	mov    0xb4(%rax),%eax
    4597:	89 c0                	mov    %eax,%eax
    4599:	48 01 c6             	add    %rax,%rsi
    459c:	8b 45 f4             	mov    -0xc(%rbp),%eax
    459f:	48 29 c6             	sub    %rax,%rsi
    45a2:	48 89 f0             	mov    %rsi,%rax
    45a5:	48 01 c1             	add    %rax,%rcx
    45a8:	48 8b 45 e0          	mov    -0x20(%rbp),%rax
    45ac:	48 89 ce             	mov    %rcx,%rsi
    45af:	48 89 c7             	mov    %rax,%rdi
    45b2:	e8 59 dc ff ff       	callq  2210 <memcpy@plt>
    45b7:	48 83 7d d8 00       	cmpq   $0x0,-0x28(%rbp)
    45bc:	74 09                	je     45c7 <deflateGetDictionary+0xc7>
    45be:	48 8b 45 d8          	mov    -0x28(%rbp),%rax
    45c2:	8b 55 f4             	mov    -0xc(%rbp),%edx
    45c5:	89 10                	mov    %edx,(%rax)
    45c7:	b8 00 00 00 00       	mov    $0x0,%eax
    45cc:	c9                   	leaveq 
    45cd:	c3                   	retq   

00000000000045ce <deflateResetKeep>:
    45ce:	55                   	push   %rbp
    45cf:	48 89 e5             	mov    %rsp,%rbp
    45d2:	48 83 ec 20          	sub    $0x20,%rsp
    45d6:	48 89 7d e8          	mov    %rdi,-0x18(%rbp)
    45da:	48 8b 45 e8          	mov    -0x18(%rbp),%rax
    45de:	48 89 c7             	mov    %rax,%rdi
    45e1:	e8 03 fb ff ff       	callq  40e9 <deflateStateCheck>
    45e6:	85 c0                	test   %eax,%eax
    45e8:	74 0a                	je     45f4 <deflateResetKeep+0x26>
    45ea:	b8 fe ff ff ff       	mov    $0xfffffffe,%eax
    45ef:	e9 09 01 00 00       	jmpq   46fd <deflateResetKeep+0x12f>
    45f4:	48 8b 45 e8          	mov    -0x18(%rbp),%rax
    45f8:	48 c7 40 28 00 00 00 	movq   $0x0,0x28(%rax)
    45ff:	00 
    4600:	48 8b 45 e8          	mov    -0x18(%rbp),%rax
    4604:	48 8b 50 28          	mov    0x28(%rax),%rdx
    4608:	48 8b 45 e8          	mov    -0x18(%rbp),%rax
    460c:	48 89 50 10          	mov    %rdx,0x10(%rax)
    4610:	48 8b 45 e8          	mov    -0x18(%rbp),%rax
    4614:	48 c7 40 30 00 00 00 	movq   $0x0,0x30(%rax)
    461b:	00 
    461c:	48 8b 45 e8          	mov    -0x18(%rbp),%rax
    4620:	c7 40 58 02 00 00 00 	movl   $0x2,0x58(%rax)
    4627:	48 8b 45 e8          	mov    -0x18(%rbp),%rax
    462b:	48 8b 40 38          	mov    0x38(%rax),%rax
    462f:	48 89 45 f8          	mov    %rax,-0x8(%rbp)
    4633:	48 8b 45 f8          	mov    -0x8(%rbp),%rax
    4637:	48 c7 40 28 00 00 00 	movq   $0x0,0x28(%rax)
    463e:	00 
    463f:	48 8b 45 f8          	mov    -0x8(%rbp),%rax
    4643:	48 8b 50 10          	mov    0x10(%rax),%rdx
    4647:	48 8b 45 f8          	mov    -0x8(%rbp),%rax
    464b:	48 89 50 20          	mov    %rdx,0x20(%rax)
    464f:	48 8b 45 f8          	mov    -0x8(%rbp),%rax
    4653:	8b 40 30             	mov    0x30(%rax),%eax
    4656:	85 c0                	test   %eax,%eax
    4658:	79 12                	jns    466c <deflateResetKeep+0x9e>
    465a:	48 8b 45 f8          	mov    -0x8(%rbp),%rax
    465e:	8b 40 30             	mov    0x30(%rax),%eax
    4661:	f7 d8                	neg    %eax
    4663:	89 c2                	mov    %eax,%edx
    4665:	48 8b 45 f8          	mov    -0x8(%rbp),%rax
    4669:	89 50 30             	mov    %edx,0x30(%rax)
    466c:	48 8b 45 f8          	mov    -0x8(%rbp),%rax
    4670:	8b 40 30             	mov    0x30(%rax),%eax
    4673:	83 f8 02             	cmp    $0x2,%eax
    4676:	74 19                	je     4691 <deflateResetKeep+0xc3>
    4678:	48 8b 45 f8          	mov    -0x8(%rbp),%rax
    467c:	8b 40 30             	mov    0x30(%rax),%eax
    467f:	85 c0                	test   %eax,%eax
    4681:	74 07                	je     468a <deflateResetKeep+0xbc>
    4683:	b8 2a 00 00 00       	mov    $0x2a,%eax
    4688:	eb 0c                	jmp    4696 <deflateResetKeep+0xc8>
    468a:	b8 71 00 00 00       	mov    $0x71,%eax
    468f:	eb 05                	jmp    4696 <deflateResetKeep+0xc8>
    4691:	b8 39 00 00 00       	mov    $0x39,%eax
    4696:	48 8b 55 f8          	mov    -0x8(%rbp),%rdx
    469a:	89 42 08             	mov    %eax,0x8(%rdx)
    469d:	48 8b 45 f8          	mov    -0x8(%rbp),%rax
    46a1:	8b 40 30             	mov    0x30(%rax),%eax
    46a4:	83 f8 02             	cmp    $0x2,%eax
    46a7:	75 19                	jne    46c2 <deflateResetKeep+0xf4>
    46a9:	ba 00 00 00 00       	mov    $0x0,%edx
    46ae:	be 00 00 00 00       	mov    $0x0,%esi
    46b3:	bf 00 00 00 00       	mov    $0x0,%edi
    46b8:	e8 53 da ff ff       	callq  2110 <crc32@plt>
    46bd:	48 89 c2             	mov    %rax,%rdx
    46c0:	eb 17                	jmp    46d9 <deflateResetKeep+0x10b>
    46c2:	ba 00 00 00 00       	mov    $0x0,%edx
    46c7:	be 00 00 00 00       	mov    $0x0,%esi
    46cc:	bf 00 00 00 00       	mov    $0x0,%edi
    46d1:	e8 6a db ff ff       	callq  2240 <adler32@plt>
    46d6:	48 89 c2             	mov    %rax,%rdx
    46d9:	48 8b 45 e8          	mov    -0x18(%rbp),%rax
    46dd:	48 89 50 60          	mov    %rdx,0x60(%rax)
    46e1:	48 8b 45 f8          	mov    -0x8(%rbp),%rax
    46e5:	c7 40 4c 00 00 00 00 	movl   $0x0,0x4c(%rax)
    46ec:	48 8b 45 f8          	mov    -0x8(%rbp),%rax
    46f0:	48 89 c7             	mov    %rax,%rdi
    46f3:	e8 19 ac 00 00       	callq  f311 <_tr_init>
    46f8:	b8 00 00 00 00       	mov    $0x0,%eax
    46fd:	c9                   	leaveq 
    46fe:	c3                   	retq   

00000000000046ff <deflateReset>:
    46ff:	55                   	push   %rbp
    4700:	48 89 e5             	mov    %rsp,%rbp
    4703:	48 83 ec 20          	sub    $0x20,%rsp
    4707:	48 89 7d e8          	mov    %rdi,-0x18(%rbp)
    470b:	48 8b 45 e8          	mov    -0x18(%rbp),%rax
    470f:	48 89 c7             	mov    %rax,%rdi
    4712:	e8 e9 db ff ff       	callq  2300 <deflateResetKeep@plt>
    4717:	89 45 fc             	mov    %eax,-0x4(%rbp)
    471a:	83 7d fc 00          	cmpl   $0x0,-0x4(%rbp)
    471e:	75 10                	jne    4730 <deflateReset+0x31>
    4720:	48 8b 45 e8          	mov    -0x18(%rbp),%rax
    4724:	48 8b 40 38          	mov    0x38(%rax),%rax
    4728:	48 89 c7             	mov    %rax,%rdi
    472b:	e8 e9 1f 00 00       	callq  6719 <lm_init>
    4730:	8b 45 fc             	mov    -0x4(%rbp),%eax
    4733:	c9                   	leaveq 
    4734:	c3                   	retq   

0000000000004735 <deflateSetHeader>:
    4735:	55                   	push   %rbp
    4736:	48 89 e5             	mov    %rsp,%rbp
    4739:	48 83 ec 10          	sub    $0x10,%rsp
    473d:	48 89 7d f8          	mov    %rdi,-0x8(%rbp)
    4741:	48 89 75 f0          	mov    %rsi,-0x10(%rbp)
    4745:	48 8b 45 f8          	mov    -0x8(%rbp),%rax
    4749:	48 89 c7             	mov    %rax,%rdi
    474c:	e8 98 f9 ff ff       	callq  40e9 <deflateStateCheck>
    4751:	85 c0                	test   %eax,%eax
    4753:	75 10                	jne    4765 <deflateSetHeader+0x30>
    4755:	48 8b 45 f8          	mov    -0x8(%rbp),%rax
    4759:	48 8b 40 38          	mov    0x38(%rax),%rax
    475d:	8b 40 30             	mov    0x30(%rax),%eax
    4760:	83 f8 02             	cmp    $0x2,%eax
    4763:	74 07                	je     476c <deflateSetHeader+0x37>
    4765:	b8 fe ff ff ff       	mov    $0xfffffffe,%eax
    476a:	eb 15                	jmp    4781 <deflateSetHeader+0x4c>
    476c:	48 8b 45 f8          	mov    -0x8(%rbp),%rax
    4770:	48 8b 40 38          	mov    0x38(%rax),%rax
    4774:	48 8b 55 f0          	mov    -0x10(%rbp),%rdx
    4778:	48 89 50 38          	mov    %rdx,0x38(%rax)
    477c:	b8 00 00 00 00       	mov    $0x0,%eax
    4781:	c9                   	leaveq 
    4782:	c3                   	retq   

0000000000004783 <deflatePending>:
    4783:	55                   	push   %rbp
    4784:	48 89 e5             	mov    %rsp,%rbp
    4787:	48 83 ec 18          	sub    $0x18,%rsp
    478b:	48 89 7d f8          	mov    %rdi,-0x8(%rbp)
    478f:	48 89 75 f0          	mov    %rsi,-0x10(%rbp)
    4793:	48 89 55 e8          	mov    %rdx,-0x18(%rbp)
    4797:	48 8b 45 f8          	mov    -0x8(%rbp),%rax
    479b:	48 89 c7             	mov    %rax,%rdi
    479e:	e8 46 f9 ff ff       	callq  40e9 <deflateStateCheck>
    47a3:	85 c0                	test   %eax,%eax
    47a5:	74 07                	je     47ae <deflatePending+0x2b>
    47a7:	b8 fe ff ff ff       	mov    $0xfffffffe,%eax
    47ac:	eb 3b                	jmp    47e9 <deflatePending+0x66>
    47ae:	48 83 7d f0 00       	cmpq   $0x0,-0x10(%rbp)
    47b3:	74 14                	je     47c9 <deflatePending+0x46>
    47b5:	48 8b 45 f8          	mov    -0x8(%rbp),%rax
    47b9:	48 8b 40 38          	mov    0x38(%rax),%rax
    47bd:	48 8b 40 28          	mov    0x28(%rax),%rax
    47c1:	89 c2                	mov    %eax,%edx
    47c3:	48 8b 45 f0          	mov    -0x10(%rbp),%rax
    47c7:	89 10                	mov    %edx,(%rax)
    47c9:	48 83 7d e8 00       	cmpq   $0x0,-0x18(%rbp)
    47ce:	74 14                	je     47e4 <deflatePending+0x61>
    47d0:	48 8b 45 f8          	mov    -0x8(%rbp),%rax
    47d4:	48 8b 40 38          	mov    0x38(%rax),%rax
    47d8:	8b 90 34 17 00 00    	mov    0x1734(%rax),%edx
    47de:	48 8b 45 e8          	mov    -0x18(%rbp),%rax
    47e2:	89 10                	mov    %edx,(%rax)
    47e4:	b8 00 00 00 00       	mov    $0x0,%eax
    47e9:	c9                   	leaveq 
    47ea:	c3                   	retq   

00000000000047eb <deflatePrime>:
    47eb:	55                   	push   %rbp
    47ec:	48 89 e5             	mov    %rsp,%rbp
    47ef:	48 83 ec 20          	sub    $0x20,%rsp
    47f3:	48 89 7d e8          	mov    %rdi,-0x18(%rbp)
    47f7:	89 75 e4             	mov    %esi,-0x1c(%rbp)
    47fa:	89 55 e0             	mov    %edx,-0x20(%rbp)
    47fd:	48 8b 45 e8          	mov    -0x18(%rbp),%rax
    4801:	48 89 c7             	mov    %rax,%rdi
    4804:	e8 e0 f8 ff ff       	callq  40e9 <deflateStateCheck>
    4809:	85 c0                	test   %eax,%eax
    480b:	74 0a                	je     4817 <deflatePrime+0x2c>
    480d:	b8 fe ff ff ff       	mov    $0xfffffffe,%eax
    4812:	e9 d6 00 00 00       	jmpq   48ed <deflatePrime+0x102>
    4817:	48 8b 45 e8          	mov    -0x18(%rbp),%rax
    481b:	48 8b 40 38          	mov    0x38(%rax),%rax
    481f:	48 89 45 f8          	mov    %rax,-0x8(%rbp)
    4823:	48 8b 45 f8          	mov    -0x8(%rbp),%rax
    4827:	48 8b 90 10 17 00 00 	mov    0x1710(%rax),%rdx
    482e:	48 8b 45 f8          	mov    -0x8(%rbp),%rax
    4832:	48 8b 40 20          	mov    0x20(%rax),%rax
    4836:	48 83 c0 02          	add    $0x2,%rax
    483a:	48 39 c2             	cmp    %rax,%rdx
    483d:	73 0a                	jae    4849 <deflatePrime+0x5e>
    483f:	b8 fb ff ff ff       	mov    $0xfffffffb,%eax
    4844:	e9 a4 00 00 00       	jmpq   48ed <deflatePrime+0x102>
    4849:	48 8b 45 f8          	mov    -0x8(%rbp),%rax
    484d:	8b 80 34 17 00 00    	mov    0x1734(%rax),%eax
    4853:	ba 10 00 00 00       	mov    $0x10,%edx
    4858:	29 c2                	sub    %eax,%edx
    485a:	89 d0                	mov    %edx,%eax
    485c:	89 45 f4             	mov    %eax,-0xc(%rbp)
    485f:	8b 45 f4             	mov    -0xc(%rbp),%eax
    4862:	3b 45 e4             	cmp    -0x1c(%rbp),%eax
    4865:	7e 06                	jle    486d <deflatePrime+0x82>
    4867:	8b 45 e4             	mov    -0x1c(%rbp),%eax
    486a:	89 45 f4             	mov    %eax,-0xc(%rbp)
    486d:	48 8b 45 f8          	mov    -0x8(%rbp),%rax
    4871:	0f b7 90 30 17 00 00 	movzwl 0x1730(%rax),%edx
    4878:	8b 45 f4             	mov    -0xc(%rbp),%eax
    487b:	be 01 00 00 00       	mov    $0x1,%esi
    4880:	89 c1                	mov    %eax,%ecx
    4882:	d3 e6                	shl    %cl,%esi
    4884:	89 f0                	mov    %esi,%eax
    4886:	83 e8 01             	sub    $0x1,%eax
    4889:	23 45 e0             	and    -0x20(%rbp),%eax
    488c:	89 c6                	mov    %eax,%esi
    488e:	48 8b 45 f8          	mov    -0x8(%rbp),%rax
    4892:	8b 80 34 17 00 00    	mov    0x1734(%rax),%eax
    4898:	89 c1                	mov    %eax,%ecx
    489a:	d3 e6                	shl    %cl,%esi
    489c:	89 f0                	mov    %esi,%eax
    489e:	09 c2                	or     %eax,%edx
    48a0:	48 8b 45 f8          	mov    -0x8(%rbp),%rax
    48a4:	66 89 90 30 17 00 00 	mov    %dx,0x1730(%rax)
    48ab:	48 8b 45 f8          	mov    -0x8(%rbp),%rax
    48af:	8b 90 34 17 00 00    	mov    0x1734(%rax),%edx
    48b5:	8b 45 f4             	mov    -0xc(%rbp),%eax
    48b8:	01 c2                	add    %eax,%edx
    48ba:	48 8b 45 f8          	mov    -0x8(%rbp),%rax
    48be:	89 90 34 17 00 00    	mov    %edx,0x1734(%rax)
    48c4:	48 8b 45 f8          	mov    -0x8(%rbp),%rax
    48c8:	48 89 c7             	mov    %rax,%rdi
    48cb:	e8 ec cf 00 00       	callq  118bc <_tr_flush_bits>
    48d0:	8b 45 f4             	mov    -0xc(%rbp),%eax
    48d3:	89 c1                	mov    %eax,%ecx
    48d5:	d3 7d e0             	sarl   %cl,-0x20(%rbp)
    48d8:	8b 45 f4             	mov    -0xc(%rbp),%eax
    48db:	29 45 e4             	sub    %eax,-0x1c(%rbp)
    48de:	83 7d e4 00          	cmpl   $0x0,-0x1c(%rbp)
    48e2:	0f 85 61 ff ff ff    	jne    4849 <deflatePrime+0x5e>
    48e8:	b8 00 00 00 00       	mov    $0x0,%eax
    48ed:	c9                   	leaveq 
    48ee:	c3                   	retq   

00000000000048ef <deflateParams>:
    48ef:	55                   	push   %rbp
    48f0:	48 89 e5             	mov    %rsp,%rbp
    48f3:	48 83 ec 30          	sub    $0x30,%rsp
    48f7:	48 89 7d d8          	mov    %rdi,-0x28(%rbp)
    48fb:	89 75 d4             	mov    %esi,-0x2c(%rbp)
    48fe:	89 55 d0             	mov    %edx,-0x30(%rbp)
    4901:	48 8b 45 d8          	mov    -0x28(%rbp),%rax
    4905:	48 89 c7             	mov    %rax,%rdi
    4908:	e8 dc f7 ff ff       	callq  40e9 <deflateStateCheck>
    490d:	85 c0                	test   %eax,%eax
    490f:	74 0a                	je     491b <deflateParams+0x2c>
    4911:	b8 fe ff ff ff       	mov    $0xfffffffe,%eax
    4916:	e9 17 02 00 00       	jmpq   4b32 <deflateParams+0x243>
    491b:	48 8b 45 d8          	mov    -0x28(%rbp),%rax
    491f:	48 8b 40 38          	mov    0x38(%rax),%rax
    4923:	48 89 45 f0          	mov    %rax,-0x10(%rbp)
    4927:	83 7d d4 ff          	cmpl   $0xffffffff,-0x2c(%rbp)
    492b:	75 07                	jne    4934 <deflateParams+0x45>
    492d:	c7 45 d4 06 00 00 00 	movl   $0x6,-0x2c(%rbp)
    4934:	83 7d d4 00          	cmpl   $0x0,-0x2c(%rbp)
    4938:	78 12                	js     494c <deflateParams+0x5d>
    493a:	83 7d d4 09          	cmpl   $0x9,-0x2c(%rbp)
    493e:	7f 0c                	jg     494c <deflateParams+0x5d>
    4940:	83 7d d0 00          	cmpl   $0x0,-0x30(%rbp)
    4944:	78 06                	js     494c <deflateParams+0x5d>
    4946:	83 7d d0 04          	cmpl   $0x4,-0x30(%rbp)
    494a:	7e 0a                	jle    4956 <deflateParams+0x67>
    494c:	b8 fe ff ff ff       	mov    $0xfffffffe,%eax
    4951:	e9 dc 01 00 00       	jmpq   4b32 <deflateParams+0x243>
    4956:	48 8b 45 f0          	mov    -0x10(%rbp),%rax
    495a:	8b 80 c4 00 00 00    	mov    0xc4(%rax),%eax
    4960:	48 98                	cltq   
    4962:	48 c1 e0 04          	shl    $0x4,%rax
    4966:	48 89 c2             	mov    %rax,%rdx
    4969:	48 8d 05 38 83 21 00 	lea    0x218338(%rip),%rax        # 21cca8 <configuration_table+0x8>
    4970:	48 8b 04 02          	mov    (%rdx,%rax,1),%rax
    4974:	48 89 45 f8          	mov    %rax,-0x8(%rbp)
    4978:	48 8b 45 f0          	mov    -0x10(%rbp),%rax
    497c:	8b 80 c8 00 00 00    	mov    0xc8(%rax),%eax
    4982:	39 45 d0             	cmp    %eax,-0x30(%rbp)
    4985:	75 1d                	jne    49a4 <deflateParams+0xb5>
    4987:	8b 45 d4             	mov    -0x2c(%rbp),%eax
    498a:	48 98                	cltq   
    498c:	48 c1 e0 04          	shl    $0x4,%rax
    4990:	48 89 c2             	mov    %rax,%rdx
    4993:	48 8d 05 0e 83 21 00 	lea    0x21830e(%rip),%rax        # 21cca8 <configuration_table+0x8>
    499a:	48 8b 04 02          	mov    (%rdx,%rax,1),%rax
    499e:	48 39 45 f8          	cmp    %rax,-0x8(%rbp)
    49a2:	74 37                	je     49db <deflateParams+0xec>
    49a4:	48 8b 45 d8          	mov    -0x28(%rbp),%rax
    49a8:	be 05 00 00 00       	mov    $0x5,%esi
    49ad:	48 89 c7             	mov    %rax,%rdi
    49b0:	e8 cb d7 ff ff       	callq  2180 <deflate@plt>
    49b5:	89 45 ec             	mov    %eax,-0x14(%rbp)
    49b8:	83 7d ec fe          	cmpl   $0xfffffffe,-0x14(%rbp)
    49bc:	75 08                	jne    49c6 <deflateParams+0xd7>
    49be:	8b 45 ec             	mov    -0x14(%rbp),%eax
    49c1:	e9 6c 01 00 00       	jmpq   4b32 <deflateParams+0x243>
    49c6:	48 8b 45 d8          	mov    -0x28(%rbp),%rax
    49ca:	8b 40 20             	mov    0x20(%rax),%eax
    49cd:	85 c0                	test   %eax,%eax
    49cf:	75 0a                	jne    49db <deflateParams+0xec>
    49d1:	b8 fb ff ff ff       	mov    $0xfffffffb,%eax
    49d6:	e9 57 01 00 00       	jmpq   4b32 <deflateParams+0x243>
    49db:	48 8b 45 f0          	mov    -0x10(%rbp),%rax
    49df:	8b 80 c4 00 00 00    	mov    0xc4(%rax),%eax
    49e5:	39 45 d4             	cmp    %eax,-0x2c(%rbp)
    49e8:	0f 84 32 01 00 00    	je     4b20 <deflateParams+0x231>
    49ee:	48 8b 45 f0          	mov    -0x10(%rbp),%rax
    49f2:	8b 80 c4 00 00 00    	mov    0xc4(%rax),%eax
    49f8:	85 c0                	test   %eax,%eax
    49fa:	0f 85 83 00 00 00    	jne    4a83 <deflateParams+0x194>
    4a00:	48 8b 45 f0          	mov    -0x10(%rbp),%rax
    4a04:	8b 80 28 17 00 00    	mov    0x1728(%rax),%eax
    4a0a:	85 c0                	test   %eax,%eax
    4a0c:	74 75                	je     4a83 <deflateParams+0x194>
    4a0e:	48 8b 45 f0          	mov    -0x10(%rbp),%rax
    4a12:	8b 80 28 17 00 00    	mov    0x1728(%rax),%eax
    4a18:	83 f8 01             	cmp    $0x1,%eax
    4a1b:	75 0e                	jne    4a2b <deflateParams+0x13c>
    4a1d:	48 8b 45 f0          	mov    -0x10(%rbp),%rax
    4a21:	48 89 c7             	mov    %rax,%rdi
    4a24:	e8 83 f1 ff ff       	callq  3bac <slide_hash>
    4a29:	eb 22                	jmp    4a4d <deflateParams+0x15e>
    4a2b:	48 8b 45 f0          	mov    -0x10(%rbp),%rax
    4a2f:	48 8b 50 78          	mov    0x78(%rax),%rdx
    4a33:	48 8b 45 f0          	mov    -0x10(%rbp),%rax
    4a37:	8b 80 84 00 00 00    	mov    0x84(%rax),%eax
    4a3d:	83 e8 01             	sub    $0x1,%eax
    4a40:	89 c0                	mov    %eax,%eax
    4a42:	48 01 c0             	add    %rax,%rax
    4a45:	48 01 d0             	add    %rdx,%rax
    4a48:	66 c7 00 00 00       	movw   $0x0,(%rax)
    4a4d:	48 8b 45 f0          	mov    -0x10(%rbp),%rax
    4a51:	8b 80 84 00 00 00    	mov    0x84(%rax),%eax
    4a57:	83 e8 01             	sub    $0x1,%eax
    4a5a:	89 c0                	mov    %eax,%eax
    4a5c:	48 8d 14 00          	lea    (%rax,%rax,1),%rdx
    4a60:	48 8b 45 f0          	mov    -0x10(%rbp),%rax
    4a64:	48 8b 40 78          	mov    0x78(%rax),%rax
    4a68:	be 00 00 00 00       	mov    $0x0,%esi
    4a6d:	48 89 c7             	mov    %rax,%rdi
    4a70:	e8 1b d7 ff ff       	callq  2190 <memset@plt>
    4a75:	48 8b 45 f0          	mov    -0x10(%rbp),%rax
    4a79:	c7 80 28 17 00 00 00 	movl   $0x0,0x1728(%rax)
    4a80:	00 00 00 
    4a83:	48 8b 45 f0          	mov    -0x10(%rbp),%rax
    4a87:	8b 55 d4             	mov    -0x2c(%rbp),%edx
    4a8a:	89 90 c4 00 00 00    	mov    %edx,0xc4(%rax)
    4a90:	8b 45 d4             	mov    -0x2c(%rbp),%eax
    4a93:	48 98                	cltq   
    4a95:	48 c1 e0 04          	shl    $0x4,%rax
    4a99:	48 89 c2             	mov    %rax,%rdx
    4a9c:	48 8d 05 ff 81 21 00 	lea    0x2181ff(%rip),%rax        # 21cca2 <configuration_table+0x2>
    4aa3:	0f b7 04 02          	movzwl (%rdx,%rax,1),%eax
    4aa7:	0f b7 d0             	movzwl %ax,%edx
    4aaa:	48 8b 45 f0          	mov    -0x10(%rbp),%rax
    4aae:	89 90 c0 00 00 00    	mov    %edx,0xc0(%rax)
    4ab4:	8b 45 d4             	mov    -0x2c(%rbp),%eax
    4ab7:	48 98                	cltq   
    4ab9:	48 c1 e0 04          	shl    $0x4,%rax
    4abd:	48 89 c2             	mov    %rax,%rdx
    4ac0:	48 8d 05 d9 81 21 00 	lea    0x2181d9(%rip),%rax        # 21cca0 <configuration_table>
    4ac7:	0f b7 04 02          	movzwl (%rdx,%rax,1),%eax
    4acb:	0f b7 d0             	movzwl %ax,%edx
    4ace:	48 8b 45 f0          	mov    -0x10(%rbp),%rax
    4ad2:	89 90 cc 00 00 00    	mov    %edx,0xcc(%rax)
    4ad8:	8b 45 d4             	mov    -0x2c(%rbp),%eax
    4adb:	48 98                	cltq   
    4add:	48 c1 e0 04          	shl    $0x4,%rax
    4ae1:	48 89 c2             	mov    %rax,%rdx
    4ae4:	48 8d 05 b9 81 21 00 	lea    0x2181b9(%rip),%rax        # 21cca4 <configuration_table+0x4>
    4aeb:	0f b7 04 02          	movzwl (%rdx,%rax,1),%eax
    4aef:	0f b7 d0             	movzwl %ax,%edx
    4af2:	48 8b 45 f0          	mov    -0x10(%rbp),%rax
    4af6:	89 90 d0 00 00 00    	mov    %edx,0xd0(%rax)
    4afc:	8b 45 d4             	mov    -0x2c(%rbp),%eax
    4aff:	48 98                	cltq   
    4b01:	48 c1 e0 04          	shl    $0x4,%rax
    4b05:	48 89 c2             	mov    %rax,%rdx
    4b08:	48 8d 05 97 81 21 00 	lea    0x218197(%rip),%rax        # 21cca6 <configuration_table+0x6>
    4b0f:	0f b7 04 02          	movzwl (%rdx,%rax,1),%eax
    4b13:	0f b7 d0             	movzwl %ax,%edx
    4b16:	48 8b 45 f0          	mov    -0x10(%rbp),%rax
    4b1a:	89 90 bc 00 00 00    	mov    %edx,0xbc(%rax)
    4b20:	48 8b 45 f0          	mov    -0x10(%rbp),%rax
    4b24:	8b 55 d0             	mov    -0x30(%rbp),%edx
    4b27:	89 90 c8 00 00 00    	mov    %edx,0xc8(%rax)
    4b2d:	b8 00 00 00 00       	mov    $0x0,%eax
    4b32:	c9                   	leaveq 
    4b33:	c3                   	retq   

0000000000004b34 <deflateTune>:
    4b34:	55                   	push   %rbp
    4b35:	48 89 e5             	mov    %rsp,%rbp
    4b38:	48 83 ec 28          	sub    $0x28,%rsp
    4b3c:	48 89 7d e8          	mov    %rdi,-0x18(%rbp)
    4b40:	89 75 e4             	mov    %esi,-0x1c(%rbp)
    4b43:	89 55 e0             	mov    %edx,-0x20(%rbp)
    4b46:	89 4d dc             	mov    %ecx,-0x24(%rbp)
    4b49:	44 89 45 d8          	mov    %r8d,-0x28(%rbp)
    4b4d:	48 8b 45 e8          	mov    -0x18(%rbp),%rax
    4b51:	48 89 c7             	mov    %rax,%rdi
    4b54:	e8 90 f5 ff ff       	callq  40e9 <deflateStateCheck>
    4b59:	85 c0                	test   %eax,%eax
    4b5b:	74 07                	je     4b64 <deflateTune+0x30>
    4b5d:	b8 fe ff ff ff       	mov    $0xfffffffe,%eax
    4b62:	eb 45                	jmp    4ba9 <deflateTune+0x75>
    4b64:	48 8b 45 e8          	mov    -0x18(%rbp),%rax
    4b68:	48 8b 40 38          	mov    0x38(%rax),%rax
    4b6c:	48 89 45 f8          	mov    %rax,-0x8(%rbp)
    4b70:	8b 55 e4             	mov    -0x1c(%rbp),%edx
    4b73:	48 8b 45 f8          	mov    -0x8(%rbp),%rax
    4b77:	89 90 cc 00 00 00    	mov    %edx,0xcc(%rax)
    4b7d:	8b 55 e0             	mov    -0x20(%rbp),%edx
    4b80:	48 8b 45 f8          	mov    -0x8(%rbp),%rax
    4b84:	89 90 c0 00 00 00    	mov    %edx,0xc0(%rax)
    4b8a:	48 8b 45 f8          	mov    -0x8(%rbp),%rax
    4b8e:	8b 55 dc             	mov    -0x24(%rbp),%edx
    4b91:	89 90 d0 00 00 00    	mov    %edx,0xd0(%rax)
    4b97:	8b 55 d8             	mov    -0x28(%rbp),%edx
    4b9a:	48 8b 45 f8          	mov    -0x8(%rbp),%rax
    4b9e:	89 90 bc 00 00 00    	mov    %edx,0xbc(%rax)
    4ba4:	b8 00 00 00 00       	mov    $0x0,%eax
    4ba9:	c9                   	leaveq 
    4baa:	c3                   	retq   

0000000000004bab <deflateBound>:
    4bab:	55                   	push   %rbp
    4bac:	48 89 e5             	mov    %rsp,%rbp
    4baf:	48 83 ec 30          	sub    $0x30,%rsp
    4bb3:	48 89 7d d8          	mov    %rdi,-0x28(%rbp)
    4bb7:	48 89 75 d0          	mov    %rsi,-0x30(%rbp)
    4bbb:	48 8b 45 d0          	mov    -0x30(%rbp),%rax
    4bbf:	48 83 c0 07          	add    $0x7,%rax
    4bc3:	48 c1 e8 03          	shr    $0x3,%rax
    4bc7:	48 89 c2             	mov    %rax,%rdx
    4bca:	48 8b 45 d0          	mov    -0x30(%rbp),%rax
    4bce:	48 01 c2             	add    %rax,%rdx
    4bd1:	48 8b 45 d0          	mov    -0x30(%rbp),%rax
    4bd5:	48 83 c0 3f          	add    $0x3f,%rax
    4bd9:	48 c1 e8 06          	shr    $0x6,%rax
    4bdd:	48 01 d0             	add    %rdx,%rax
    4be0:	48 83 c0 05          	add    $0x5,%rax
    4be4:	48 89 45 f0          	mov    %rax,-0x10(%rbp)
    4be8:	48 8b 45 d8          	mov    -0x28(%rbp),%rax
    4bec:	48 89 c7             	mov    %rax,%rdi
    4bef:	e8 f5 f4 ff ff       	callq  40e9 <deflateStateCheck>
    4bf4:	85 c0                	test   %eax,%eax
    4bf6:	74 0d                	je     4c05 <deflateBound+0x5a>
    4bf8:	48 8b 45 f0          	mov    -0x10(%rbp),%rax
    4bfc:	48 83 c0 06          	add    $0x6,%rax
    4c00:	e9 6d 01 00 00       	jmpq   4d72 <deflateBound+0x1c7>
    4c05:	48 8b 45 d8          	mov    -0x28(%rbp),%rax
    4c09:	48 8b 40 38          	mov    0x38(%rax),%rax
    4c0d:	48 89 45 f8          	mov    %rax,-0x8(%rbp)
    4c11:	48 8b 45 f8          	mov    -0x8(%rbp),%rax
    4c15:	8b 40 30             	mov    0x30(%rax),%eax
    4c18:	83 f8 01             	cmp    $0x1,%eax
    4c1b:	74 1a                	je     4c37 <deflateBound+0x8c>
    4c1d:	83 f8 02             	cmp    $0x2,%eax
    4c20:	74 38                	je     4c5a <deflateBound+0xaf>
    4c22:	85 c0                	test   %eax,%eax
    4c24:	0f 85 e2 00 00 00    	jne    4d0c <deflateBound+0x161>
    4c2a:	48 c7 45 e0 00 00 00 	movq   $0x0,-0x20(%rbp)
    4c31:	00 
    4c32:	e9 e0 00 00 00       	jmpq   4d17 <deflateBound+0x16c>
    4c37:	48 8b 45 f8          	mov    -0x8(%rbp),%rax
    4c3b:	8b 80 ac 00 00 00    	mov    0xac(%rax),%eax
    4c41:	85 c0                	test   %eax,%eax
    4c43:	74 07                	je     4c4c <deflateBound+0xa1>
    4c45:	b8 0a 00 00 00       	mov    $0xa,%eax
    4c4a:	eb 05                	jmp    4c51 <deflateBound+0xa6>
    4c4c:	b8 06 00 00 00       	mov    $0x6,%eax
    4c51:	48 89 45 e0          	mov    %rax,-0x20(%rbp)
    4c55:	e9 bd 00 00 00       	jmpq   4d17 <deflateBound+0x16c>
    4c5a:	48 c7 45 e0 12 00 00 	movq   $0x12,-0x20(%rbp)
    4c61:	00 
    4c62:	48 8b 45 f8          	mov    -0x8(%rbp),%rax
    4c66:	48 8b 40 38          	mov    0x38(%rax),%rax
    4c6a:	48 85 c0             	test   %rax,%rax
    4c6d:	0f 84 a3 00 00 00    	je     4d16 <deflateBound+0x16b>
    4c73:	48 8b 45 f8          	mov    -0x8(%rbp),%rax
    4c77:	48 8b 40 38          	mov    0x38(%rax),%rax
    4c7b:	48 8b 40 18          	mov    0x18(%rax),%rax
    4c7f:	48 85 c0             	test   %rax,%rax
    4c82:	74 14                	je     4c98 <deflateBound+0xed>
    4c84:	48 8b 45 f8          	mov    -0x8(%rbp),%rax
    4c88:	48 8b 40 38          	mov    0x38(%rax),%rax
    4c8c:	8b 40 20             	mov    0x20(%rax),%eax
    4c8f:	83 c0 02             	add    $0x2,%eax
    4c92:	89 c0                	mov    %eax,%eax
    4c94:	48 01 45 e0          	add    %rax,-0x20(%rbp)
    4c98:	48 8b 45 f8          	mov    -0x8(%rbp),%rax
    4c9c:	48 8b 40 38          	mov    0x38(%rax),%rax
    4ca0:	48 8b 40 28          	mov    0x28(%rax),%rax
    4ca4:	48 89 45 e8          	mov    %rax,-0x18(%rbp)
    4ca8:	48 83 7d e8 00       	cmpq   $0x0,-0x18(%rbp)
    4cad:	74 18                	je     4cc7 <deflateBound+0x11c>
    4caf:	48 83 45 e0 01       	addq   $0x1,-0x20(%rbp)
    4cb4:	48 8b 45 e8          	mov    -0x18(%rbp),%rax
    4cb8:	48 8d 50 01          	lea    0x1(%rax),%rdx
    4cbc:	48 89 55 e8          	mov    %rdx,-0x18(%rbp)
    4cc0:	0f b6 00             	movzbl (%rax),%eax
    4cc3:	84 c0                	test   %al,%al
    4cc5:	75 e8                	jne    4caf <deflateBound+0x104>
    4cc7:	48 8b 45 f8          	mov    -0x8(%rbp),%rax
    4ccb:	48 8b 40 38          	mov    0x38(%rax),%rax
    4ccf:	48 8b 40 38          	mov    0x38(%rax),%rax
    4cd3:	48 89 45 e8          	mov    %rax,-0x18(%rbp)
    4cd7:	48 83 7d e8 00       	cmpq   $0x0,-0x18(%rbp)
    4cdc:	74 18                	je     4cf6 <deflateBound+0x14b>
    4cde:	48 83 45 e0 01       	addq   $0x1,-0x20(%rbp)
    4ce3:	48 8b 45 e8          	mov    -0x18(%rbp),%rax
    4ce7:	48 8d 50 01          	lea    0x1(%rax),%rdx
    4ceb:	48 89 55 e8          	mov    %rdx,-0x18(%rbp)
    4cef:	0f b6 00             	movzbl (%rax),%eax
    4cf2:	84 c0                	test   %al,%al
    4cf4:	75 e8                	jne    4cde <deflateBound+0x133>
    4cf6:	48 8b 45 f8          	mov    -0x8(%rbp),%rax
    4cfa:	48 8b 40 38          	mov    0x38(%rax),%rax
    4cfe:	8b 40 44             	mov    0x44(%rax),%eax
    4d01:	85 c0                	test   %eax,%eax
    4d03:	74 11                	je     4d16 <deflateBound+0x16b>
    4d05:	48 83 45 e0 02       	addq   $0x2,-0x20(%rbp)
    4d0a:	eb 0a                	jmp    4d16 <deflateBound+0x16b>
    4d0c:	48 c7 45 e0 06 00 00 	movq   $0x6,-0x20(%rbp)
    4d13:	00 
    4d14:	eb 01                	jmp    4d17 <deflateBound+0x16c>
    4d16:	90                   	nop
    4d17:	48 8b 45 f8          	mov    -0x8(%rbp),%rax
    4d1b:	8b 40 54             	mov    0x54(%rax),%eax
    4d1e:	83 f8 0f             	cmp    $0xf,%eax
    4d21:	75 0f                	jne    4d32 <deflateBound+0x187>
    4d23:	48 8b 45 f8          	mov    -0x8(%rbp),%rax
    4d27:	8b 80 88 00 00 00    	mov    0x88(%rax),%eax
    4d2d:	83 f8 0f             	cmp    $0xf,%eax
    4d30:	74 0d                	je     4d3f <deflateBound+0x194>
    4d32:	48 8b 55 f0          	mov    -0x10(%rbp),%rdx
    4d36:	48 8b 45 e0          	mov    -0x20(%rbp),%rax
    4d3a:	48 01 d0             	add    %rdx,%rax
    4d3d:	eb 33                	jmp    4d72 <deflateBound+0x1c7>
    4d3f:	48 8b 45 d0          	mov    -0x30(%rbp),%rax
    4d43:	48 c1 e8 0c          	shr    $0xc,%rax
    4d47:	48 89 c2             	mov    %rax,%rdx
    4d4a:	48 8b 45 d0          	mov    -0x30(%rbp),%rax
    4d4e:	48 01 c2             	add    %rax,%rdx
    4d51:	48 8b 45 d0          	mov    -0x30(%rbp),%rax
    4d55:	48 c1 e8 0e          	shr    $0xe,%rax
    4d59:	48 01 c2             	add    %rax,%rdx
    4d5c:	48 8b 45 d0          	mov    -0x30(%rbp),%rax
    4d60:	48 c1 e8 19          	shr    $0x19,%rax
    4d64:	48 01 c2             	add    %rax,%rdx
    4d67:	48 8b 45 e0          	mov    -0x20(%rbp),%rax
    4d6b:	48 01 d0             	add    %rdx,%rax
    4d6e:	48 83 c0 07          	add    $0x7,%rax
    4d72:	c9                   	leaveq 
    4d73:	c3                   	retq   

0000000000004d74 <putShortMSB>:
    4d74:	55                   	push   %rbp
    4d75:	48 89 e5             	mov    %rsp,%rbp
    4d78:	48 89 7d f8          	mov    %rdi,-0x8(%rbp)
    4d7c:	89 75 f4             	mov    %esi,-0xc(%rbp)
    4d7f:	8b 45 f4             	mov    -0xc(%rbp),%eax
    4d82:	c1 e8 08             	shr    $0x8,%eax
    4d85:	89 c7                	mov    %eax,%edi
    4d87:	48 8b 45 f8          	mov    -0x8(%rbp),%rax
    4d8b:	48 8b 70 10          	mov    0x10(%rax),%rsi
    4d8f:	48 8b 45 f8          	mov    -0x8(%rbp),%rax
    4d93:	48 8b 40 28          	mov    0x28(%rax),%rax
    4d97:	48 8d 48 01          	lea    0x1(%rax),%rcx
    4d9b:	48 8b 55 f8          	mov    -0x8(%rbp),%rdx
    4d9f:	48 89 4a 28          	mov    %rcx,0x28(%rdx)
    4da3:	48 01 f0             	add    %rsi,%rax
    4da6:	89 fa                	mov    %edi,%edx
    4da8:	88 10                	mov    %dl,(%rax)
    4daa:	48 8b 45 f8          	mov    -0x8(%rbp),%rax
    4dae:	48 8b 70 10          	mov    0x10(%rax),%rsi
    4db2:	48 8b 45 f8          	mov    -0x8(%rbp),%rax
    4db6:	48 8b 40 28          	mov    0x28(%rax),%rax
    4dba:	48 8d 48 01          	lea    0x1(%rax),%rcx
    4dbe:	48 8b 55 f8          	mov    -0x8(%rbp),%rdx
    4dc2:	48 89 4a 28          	mov    %rcx,0x28(%rdx)
    4dc6:	48 01 f0             	add    %rsi,%rax
    4dc9:	8b 55 f4             	mov    -0xc(%rbp),%edx
    4dcc:	88 10                	mov    %dl,(%rax)
    4dce:	90                   	nop
    4dcf:	5d                   	pop    %rbp
    4dd0:	c3                   	retq   

0000000000004dd1 <flush_pending>:
    4dd1:	55                   	push   %rbp
    4dd2:	48 89 e5             	mov    %rsp,%rbp
    4dd5:	48 83 ec 20          	sub    $0x20,%rsp
    4dd9:	48 89 7d e8          	mov    %rdi,-0x18(%rbp)
    4ddd:	48 8b 45 e8          	mov    -0x18(%rbp),%rax
    4de1:	48 8b 40 38          	mov    0x38(%rax),%rax
    4de5:	48 89 45 f8          	mov    %rax,-0x8(%rbp)
    4de9:	48 8b 45 f8          	mov    -0x8(%rbp),%rax
    4ded:	48 89 c7             	mov    %rax,%rdi
    4df0:	e8 c7 ca 00 00       	callq  118bc <_tr_flush_bits>
    4df5:	48 8b 45 f8          	mov    -0x8(%rbp),%rax
    4df9:	48 8b 40 28          	mov    0x28(%rax),%rax
    4dfd:	89 45 f4             	mov    %eax,-0xc(%rbp)
    4e00:	48 8b 45 e8          	mov    -0x18(%rbp),%rax
    4e04:	8b 40 20             	mov    0x20(%rax),%eax
    4e07:	39 45 f4             	cmp    %eax,-0xc(%rbp)
    4e0a:	76 0a                	jbe    4e16 <flush_pending+0x45>
    4e0c:	48 8b 45 e8          	mov    -0x18(%rbp),%rax
    4e10:	8b 40 20             	mov    0x20(%rax),%eax
    4e13:	89 45 f4             	mov    %eax,-0xc(%rbp)
    4e16:	83 7d f4 00          	cmpl   $0x0,-0xc(%rbp)
    4e1a:	0f 84 a8 00 00 00    	je     4ec8 <flush_pending+0xf7>
    4e20:	8b 55 f4             	mov    -0xc(%rbp),%edx
    4e23:	48 8b 45 f8          	mov    -0x8(%rbp),%rax
    4e27:	48 8b 48 20          	mov    0x20(%rax),%rcx
    4e2b:	48 8b 45 e8          	mov    -0x18(%rbp),%rax
    4e2f:	48 8b 40 18          	mov    0x18(%rax),%rax
    4e33:	48 89 ce             	mov    %rcx,%rsi
    4e36:	48 89 c7             	mov    %rax,%rdi
    4e39:	e8 d2 d3 ff ff       	callq  2210 <memcpy@plt>
    4e3e:	48 8b 45 e8          	mov    -0x18(%rbp),%rax
    4e42:	48 8b 50 18          	mov    0x18(%rax),%rdx
    4e46:	8b 45 f4             	mov    -0xc(%rbp),%eax
    4e49:	48 01 c2             	add    %rax,%rdx
    4e4c:	48 8b 45 e8          	mov    -0x18(%rbp),%rax
    4e50:	48 89 50 18          	mov    %rdx,0x18(%rax)
    4e54:	48 8b 45 f8          	mov    -0x8(%rbp),%rax
    4e58:	48 8b 50 20          	mov    0x20(%rax),%rdx
    4e5c:	8b 45 f4             	mov    -0xc(%rbp),%eax
    4e5f:	48 01 c2             	add    %rax,%rdx
    4e62:	48 8b 45 f8          	mov    -0x8(%rbp),%rax
    4e66:	48 89 50 20          	mov    %rdx,0x20(%rax)
    4e6a:	48 8b 45 e8          	mov    -0x18(%rbp),%rax
    4e6e:	48 8b 50 28          	mov    0x28(%rax),%rdx
    4e72:	8b 45 f4             	mov    -0xc(%rbp),%eax
    4e75:	48 01 c2             	add    %rax,%rdx
    4e78:	48 8b 45 e8          	mov    -0x18(%rbp),%rax
    4e7c:	48 89 50 28          	mov    %rdx,0x28(%rax)
    4e80:	48 8b 45 e8          	mov    -0x18(%rbp),%rax
    4e84:	8b 40 20             	mov    0x20(%rax),%eax
    4e87:	2b 45 f4             	sub    -0xc(%rbp),%eax
    4e8a:	89 c2                	mov    %eax,%edx
    4e8c:	48 8b 45 e8          	mov    -0x18(%rbp),%rax
    4e90:	89 50 20             	mov    %edx,0x20(%rax)
    4e93:	48 8b 45 f8          	mov    -0x8(%rbp),%rax
    4e97:	48 8b 50 28          	mov    0x28(%rax),%rdx
    4e9b:	8b 45 f4             	mov    -0xc(%rbp),%eax
    4e9e:	48 29 c2             	sub    %rax,%rdx
    4ea1:	48 8b 45 f8          	mov    -0x8(%rbp),%rax
    4ea5:	48 89 50 28          	mov    %rdx,0x28(%rax)
    4ea9:	48 8b 45 f8          	mov    -0x8(%rbp),%rax
    4ead:	48 8b 40 28          	mov    0x28(%rax),%rax
    4eb1:	48 85 c0             	test   %rax,%rax
    4eb4:	75 13                	jne    4ec9 <flush_pending+0xf8>
    4eb6:	48 8b 45 f8          	mov    -0x8(%rbp),%rax
    4eba:	48 8b 50 10          	mov    0x10(%rax),%rdx
    4ebe:	48 8b 45 f8          	mov    -0x8(%rbp),%rax
    4ec2:	48 89 50 20          	mov    %rdx,0x20(%rax)
    4ec6:	eb 01                	jmp    4ec9 <flush_pending+0xf8>
    4ec8:	90                   	nop
    4ec9:	c9                   	leaveq 
    4eca:	c3                   	retq   

0000000000004ecb <deflate>:
    4ecb:	55                   	push   %rbp
    4ecc:	48 89 e5             	mov    %rsp,%rbp
    4ecf:	48 83 ec 50          	sub    $0x50,%rsp
    4ed3:	48 89 7d b8          	mov    %rdi,-0x48(%rbp)
    4ed7:	89 75 b4             	mov    %esi,-0x4c(%rbp)
    4eda:	48 8b 45 b8          	mov    -0x48(%rbp),%rax
    4ede:	48 89 c7             	mov    %rax,%rdi
    4ee1:	e8 03 f2 ff ff       	callq  40e9 <deflateStateCheck>
    4ee6:	85 c0                	test   %eax,%eax
    4ee8:	75 0c                	jne    4ef6 <deflate+0x2b>
    4eea:	83 7d b4 05          	cmpl   $0x5,-0x4c(%rbp)
    4eee:	7f 06                	jg     4ef6 <deflate+0x2b>
    4ef0:	83 7d b4 00          	cmpl   $0x0,-0x4c(%rbp)
    4ef4:	79 0a                	jns    4f00 <deflate+0x35>
    4ef6:	b8 fe ff ff ff       	mov    $0xfffffffe,%eax
    4efb:	e9 ae 12 00 00       	jmpq   61ae <deflate+0x12e3>
    4f00:	48 8b 45 b8          	mov    -0x48(%rbp),%rax
    4f04:	48 8b 40 38          	mov    0x38(%rax),%rax
    4f08:	48 89 45 f8          	mov    %rax,-0x8(%rbp)
    4f0c:	48 8b 45 b8          	mov    -0x48(%rbp),%rax
    4f10:	48 8b 40 18          	mov    0x18(%rax),%rax
    4f14:	48 85 c0             	test   %rax,%rax
    4f17:	74 2b                	je     4f44 <deflate+0x79>
    4f19:	48 8b 45 b8          	mov    -0x48(%rbp),%rax
    4f1d:	8b 40 08             	mov    0x8(%rax),%eax
    4f20:	85 c0                	test   %eax,%eax
    4f22:	74 0c                	je     4f30 <deflate+0x65>
    4f24:	48 8b 45 b8          	mov    -0x48(%rbp),%rax
    4f28:	48 8b 00             	mov    (%rax),%rax
    4f2b:	48 85 c0             	test   %rax,%rax
    4f2e:	74 14                	je     4f44 <deflate+0x79>
    4f30:	48 8b 45 f8          	mov    -0x8(%rbp),%rax
    4f34:	8b 40 08             	mov    0x8(%rax),%eax
    4f37:	3d 9a 02 00 00       	cmp    $0x29a,%eax
    4f3c:	75 23                	jne    4f61 <deflate+0x96>
    4f3e:	83 7d b4 04          	cmpl   $0x4,-0x4c(%rbp)
    4f42:	74 1d                	je     4f61 <deflate+0x96>
    4f44:	48 8d 05 55 7e 21 00 	lea    0x217e55(%rip),%rax        # 21cda0 <z_errmsg>
    4f4b:	48 8b 50 20          	mov    0x20(%rax),%rdx
    4f4f:	48 8b 45 b8          	mov    -0x48(%rbp),%rax
    4f53:	48 89 50 30          	mov    %rdx,0x30(%rax)
    4f57:	b8 fe ff ff ff       	mov    $0xfffffffe,%eax
    4f5c:	e9 4d 12 00 00       	jmpq   61ae <deflate+0x12e3>
    4f61:	48 8b 45 b8          	mov    -0x48(%rbp),%rax
    4f65:	8b 40 20             	mov    0x20(%rax),%eax
    4f68:	85 c0                	test   %eax,%eax
    4f6a:	75 1d                	jne    4f89 <deflate+0xbe>
    4f6c:	48 8d 05 2d 7e 21 00 	lea    0x217e2d(%rip),%rax        # 21cda0 <z_errmsg>
    4f73:	48 8b 50 38          	mov    0x38(%rax),%rdx
    4f77:	48 8b 45 b8          	mov    -0x48(%rbp),%rax
    4f7b:	48 89 50 30          	mov    %rdx,0x30(%rax)
    4f7f:	b8 fb ff ff ff       	mov    $0xfffffffb,%eax
    4f84:	e9 25 12 00 00       	jmpq   61ae <deflate+0x12e3>
    4f89:	48 8b 45 f8          	mov    -0x8(%rbp),%rax
    4f8d:	8b 40 4c             	mov    0x4c(%rax),%eax
    4f90:	89 45 cc             	mov    %eax,-0x34(%rbp)
    4f93:	48 8b 45 f8          	mov    -0x8(%rbp),%rax
    4f97:	8b 55 b4             	mov    -0x4c(%rbp),%edx
    4f9a:	89 50 4c             	mov    %edx,0x4c(%rax)
    4f9d:	48 8b 45 f8          	mov    -0x8(%rbp),%rax
    4fa1:	48 8b 40 28          	mov    0x28(%rax),%rax
    4fa5:	48 85 c0             	test   %rax,%rax
    4fa8:	74 2c                	je     4fd6 <deflate+0x10b>
    4faa:	48 8b 45 b8          	mov    -0x48(%rbp),%rax
    4fae:	48 89 c7             	mov    %rax,%rdi
    4fb1:	e8 1b fe ff ff       	callq  4dd1 <flush_pending>
    4fb6:	48 8b 45 b8          	mov    -0x48(%rbp),%rax
    4fba:	8b 40 20             	mov    0x20(%rax),%eax
    4fbd:	85 c0                	test   %eax,%eax
    4fbf:	75 7b                	jne    503c <deflate+0x171>
    4fc1:	48 8b 45 f8          	mov    -0x8(%rbp),%rax
    4fc5:	c7 40 4c ff ff ff ff 	movl   $0xffffffff,0x4c(%rax)
    4fcc:	b8 00 00 00 00       	mov    $0x0,%eax
    4fd1:	e9 d8 11 00 00       	jmpq   61ae <deflate+0x12e3>
    4fd6:	48 8b 45 b8          	mov    -0x48(%rbp),%rax
    4fda:	8b 40 08             	mov    0x8(%rax),%eax
    4fdd:	85 c0                	test   %eax,%eax
    4fdf:	75 5b                	jne    503c <deflate+0x171>
    4fe1:	8b 45 b4             	mov    -0x4c(%rbp),%eax
    4fe4:	01 c0                	add    %eax,%eax
    4fe6:	83 7d b4 04          	cmpl   $0x4,-0x4c(%rbp)
    4fea:	7e 07                	jle    4ff3 <deflate+0x128>
    4fec:	ba 09 00 00 00       	mov    $0x9,%edx
    4ff1:	eb 05                	jmp    4ff8 <deflate+0x12d>
    4ff3:	ba 00 00 00 00       	mov    $0x0,%edx
    4ff8:	29 d0                	sub    %edx,%eax
    4ffa:	89 c2                	mov    %eax,%edx
    4ffc:	8b 45 cc             	mov    -0x34(%rbp),%eax
    4fff:	01 c0                	add    %eax,%eax
    5001:	83 7d cc 04          	cmpl   $0x4,-0x34(%rbp)
    5005:	7e 07                	jle    500e <deflate+0x143>
    5007:	b9 09 00 00 00       	mov    $0x9,%ecx
    500c:	eb 05                	jmp    5013 <deflate+0x148>
    500e:	b9 00 00 00 00       	mov    $0x0,%ecx
    5013:	29 c8                	sub    %ecx,%eax
    5015:	39 c2                	cmp    %eax,%edx
    5017:	7f 23                	jg     503c <deflate+0x171>
    5019:	83 7d b4 04          	cmpl   $0x4,-0x4c(%rbp)
    501d:	74 1d                	je     503c <deflate+0x171>
    501f:	48 8d 05 7a 7d 21 00 	lea    0x217d7a(%rip),%rax        # 21cda0 <z_errmsg>
    5026:	48 8b 50 38          	mov    0x38(%rax),%rdx
    502a:	48 8b 45 b8          	mov    -0x48(%rbp),%rax
    502e:	48 89 50 30          	mov    %rdx,0x30(%rax)
    5032:	b8 fb ff ff ff       	mov    $0xfffffffb,%eax
    5037:	e9 72 11 00 00       	jmpq   61ae <deflate+0x12e3>
    503c:	48 8b 45 f8          	mov    -0x8(%rbp),%rax
    5040:	8b 40 08             	mov    0x8(%rax),%eax
    5043:	3d 9a 02 00 00       	cmp    $0x29a,%eax
    5048:	75 28                	jne    5072 <deflate+0x1a7>
    504a:	48 8b 45 b8          	mov    -0x48(%rbp),%rax
    504e:	8b 40 08             	mov    0x8(%rax),%eax
    5051:	85 c0                	test   %eax,%eax
    5053:	74 1d                	je     5072 <deflate+0x1a7>
    5055:	48 8d 05 44 7d 21 00 	lea    0x217d44(%rip),%rax        # 21cda0 <z_errmsg>
    505c:	48 8b 50 38          	mov    0x38(%rax),%rdx
    5060:	48 8b 45 b8          	mov    -0x48(%rbp),%rax
    5064:	48 89 50 30          	mov    %rdx,0x30(%rax)
    5068:	b8 fb ff ff ff       	mov    $0xfffffffb,%eax
    506d:	e9 3c 11 00 00       	jmpq   61ae <deflate+0x12e3>
    5072:	48 8b 45 f8          	mov    -0x8(%rbp),%rax
    5076:	8b 40 08             	mov    0x8(%rax),%eax
    5079:	83 f8 2a             	cmp    $0x2a,%eax
    507c:	0f 85 6a 01 00 00    	jne    51ec <deflate+0x321>
    5082:	48 8b 45 f8          	mov    -0x8(%rbp),%rax
    5086:	8b 40 54             	mov    0x54(%rax),%eax
    5089:	83 e8 08             	sub    $0x8,%eax
    508c:	c1 e0 04             	shl    $0x4,%eax
    508f:	83 c0 08             	add    $0x8,%eax
    5092:	c1 e0 08             	shl    $0x8,%eax
    5095:	89 45 c0             	mov    %eax,-0x40(%rbp)
    5098:	48 8b 45 f8          	mov    -0x8(%rbp),%rax
    509c:	8b 80 c8 00 00 00    	mov    0xc8(%rax),%eax
    50a2:	83 f8 01             	cmp    $0x1,%eax
    50a5:	7f 0f                	jg     50b6 <deflate+0x1eb>
    50a7:	48 8b 45 f8          	mov    -0x8(%rbp),%rax
    50ab:	8b 80 c4 00 00 00    	mov    0xc4(%rax),%eax
    50b1:	83 f8 01             	cmp    $0x1,%eax
    50b4:	7f 09                	jg     50bf <deflate+0x1f4>
    50b6:	c7 45 c4 00 00 00 00 	movl   $0x0,-0x3c(%rbp)
    50bd:	eb 37                	jmp    50f6 <deflate+0x22b>
    50bf:	48 8b 45 f8          	mov    -0x8(%rbp),%rax
    50c3:	8b 80 c4 00 00 00    	mov    0xc4(%rax),%eax
    50c9:	83 f8 05             	cmp    $0x5,%eax
    50cc:	7f 09                	jg     50d7 <deflate+0x20c>
    50ce:	c7 45 c4 01 00 00 00 	movl   $0x1,-0x3c(%rbp)
    50d5:	eb 1f                	jmp    50f6 <deflate+0x22b>
    50d7:	48 8b 45 f8          	mov    -0x8(%rbp),%rax
    50db:	8b 80 c4 00 00 00    	mov    0xc4(%rax),%eax
    50e1:	83 f8 06             	cmp    $0x6,%eax
    50e4:	75 09                	jne    50ef <deflate+0x224>
    50e6:	c7 45 c4 02 00 00 00 	movl   $0x2,-0x3c(%rbp)
    50ed:	eb 07                	jmp    50f6 <deflate+0x22b>
    50ef:	c7 45 c4 03 00 00 00 	movl   $0x3,-0x3c(%rbp)
    50f6:	8b 45 c4             	mov    -0x3c(%rbp),%eax
    50f9:	c1 e0 06             	shl    $0x6,%eax
    50fc:	09 45 c0             	or     %eax,-0x40(%rbp)
    50ff:	48 8b 45 f8          	mov    -0x8(%rbp),%rax
    5103:	8b 80 ac 00 00 00    	mov    0xac(%rax),%eax
    5109:	85 c0                	test   %eax,%eax
    510b:	74 04                	je     5111 <deflate+0x246>
    510d:	83 4d c0 20          	orl    $0x20,-0x40(%rbp)
    5111:	8b 4d c0             	mov    -0x40(%rbp),%ecx
    5114:	ba 85 10 42 08       	mov    $0x8421085,%edx
    5119:	89 c8                	mov    %ecx,%eax
    511b:	f7 e2                	mul    %edx
    511d:	89 c8                	mov    %ecx,%eax
    511f:	29 d0                	sub    %edx,%eax
    5121:	d1 e8                	shr    %eax
    5123:	01 d0                	add    %edx,%eax
    5125:	c1 e8 04             	shr    $0x4,%eax
    5128:	89 c2                	mov    %eax,%edx
    512a:	c1 e2 05             	shl    $0x5,%edx
    512d:	29 c2                	sub    %eax,%edx
    512f:	89 c8                	mov    %ecx,%eax
    5131:	29 d0                	sub    %edx,%eax
    5133:	8b 55 c0             	mov    -0x40(%rbp),%edx
    5136:	29 c2                	sub    %eax,%edx
    5138:	89 d0                	mov    %edx,%eax
    513a:	83 c0 1f             	add    $0x1f,%eax
    513d:	89 45 c0             	mov    %eax,-0x40(%rbp)
    5140:	8b 55 c0             	mov    -0x40(%rbp),%edx
    5143:	48 8b 45 f8          	mov    -0x8(%rbp),%rax
    5147:	89 d6                	mov    %edx,%esi
    5149:	48 89 c7             	mov    %rax,%rdi
    514c:	e8 23 fc ff ff       	callq  4d74 <putShortMSB>
    5151:	48 8b 45 f8          	mov    -0x8(%rbp),%rax
    5155:	8b 80 ac 00 00 00    	mov    0xac(%rax),%eax
    515b:	85 c0                	test   %eax,%eax
    515d:	74 35                	je     5194 <deflate+0x2c9>
    515f:	48 8b 45 b8          	mov    -0x48(%rbp),%rax
    5163:	48 8b 40 60          	mov    0x60(%rax),%rax
    5167:	48 c1 e8 10          	shr    $0x10,%rax
    516b:	89 c2                	mov    %eax,%edx
    516d:	48 8b 45 f8          	mov    -0x8(%rbp),%rax
    5171:	89 d6                	mov    %edx,%esi
    5173:	48 89 c7             	mov    %rax,%rdi
    5176:	e8 f9 fb ff ff       	callq  4d74 <putShortMSB>
    517b:	48 8b 45 b8          	mov    -0x48(%rbp),%rax
    517f:	48 8b 40 60          	mov    0x60(%rax),%rax
    5183:	0f b7 d0             	movzwl %ax,%edx
    5186:	48 8b 45 f8          	mov    -0x8(%rbp),%rax
    518a:	89 d6                	mov    %edx,%esi
    518c:	48 89 c7             	mov    %rax,%rdi
    518f:	e8 e0 fb ff ff       	callq  4d74 <putShortMSB>
    5194:	ba 00 00 00 00       	mov    $0x0,%edx
    5199:	be 00 00 00 00       	mov    $0x0,%esi
    519e:	bf 00 00 00 00       	mov    $0x0,%edi
    51a3:	e8 98 d0 ff ff       	callq  2240 <adler32@plt>
    51a8:	48 89 c2             	mov    %rax,%rdx
    51ab:	48 8b 45 b8          	mov    -0x48(%rbp),%rax
    51af:	48 89 50 60          	mov    %rdx,0x60(%rax)
    51b3:	48 8b 45 f8          	mov    -0x8(%rbp),%rax
    51b7:	c7 40 08 71 00 00 00 	movl   $0x71,0x8(%rax)
    51be:	48 8b 45 b8          	mov    -0x48(%rbp),%rax
    51c2:	48 89 c7             	mov    %rax,%rdi
    51c5:	e8 07 fc ff ff       	callq  4dd1 <flush_pending>
    51ca:	48 8b 45 f8          	mov    -0x8(%rbp),%rax
    51ce:	48 8b 40 28          	mov    0x28(%rax),%rax
    51d2:	48 85 c0             	test   %rax,%rax
    51d5:	74 15                	je     51ec <deflate+0x321>
    51d7:	48 8b 45 f8          	mov    -0x8(%rbp),%rax
    51db:	c7 40 4c ff ff ff ff 	movl   $0xffffffff,0x4c(%rax)
    51e2:	b8 00 00 00 00       	mov    $0x0,%eax
    51e7:	e9 c2 0f 00 00       	jmpq   61ae <deflate+0x12e3>
    51ec:	48 8b 45 f8          	mov    -0x8(%rbp),%rax
    51f0:	8b 40 08             	mov    0x8(%rax),%eax
    51f3:	83 f8 39             	cmp    $0x39,%eax
    51f6:	0f 85 e2 04 00 00    	jne    56de <deflate+0x813>
    51fc:	ba 00 00 00 00       	mov    $0x0,%edx
    5201:	be 00 00 00 00       	mov    $0x0,%esi
    5206:	bf 00 00 00 00       	mov    $0x0,%edi
    520b:	e8 00 cf ff ff       	callq  2110 <crc32@plt>
    5210:	48 89 c2             	mov    %rax,%rdx
    5213:	48 8b 45 b8          	mov    -0x48(%rbp),%rax
    5217:	48 89 50 60          	mov    %rdx,0x60(%rax)
    521b:	48 8b 45 f8          	mov    -0x8(%rbp),%rax
    521f:	48 8b 70 10          	mov    0x10(%rax),%rsi
    5223:	48 8b 45 f8          	mov    -0x8(%rbp),%rax
    5227:	48 8b 40 28          	mov    0x28(%rax),%rax
    522b:	48 8d 48 01          	lea    0x1(%rax),%rcx
    522f:	48 8b 55 f8          	mov    -0x8(%rbp),%rdx
    5233:	48 89 4a 28          	mov    %rcx,0x28(%rdx)
    5237:	48 01 f0             	add    %rsi,%rax
    523a:	c6 00 1f             	movb   $0x1f,(%rax)
    523d:	48 8b 45 f8          	mov    -0x8(%rbp),%rax
    5241:	48 8b 70 10          	mov    0x10(%rax),%rsi
    5245:	48 8b 45 f8          	mov    -0x8(%rbp),%rax
    5249:	48 8b 40 28          	mov    0x28(%rax),%rax
    524d:	48 8d 48 01          	lea    0x1(%rax),%rcx
    5251:	48 8b 55 f8          	mov    -0x8(%rbp),%rdx
    5255:	48 89 4a 28          	mov    %rcx,0x28(%rdx)
    5259:	48 01 f0             	add    %rsi,%rax
    525c:	c6 00 8b             	movb   $0x8b,(%rax)
    525f:	48 8b 45 f8          	mov    -0x8(%rbp),%rax
    5263:	48 8b 70 10          	mov    0x10(%rax),%rsi
    5267:	48 8b 45 f8          	mov    -0x8(%rbp),%rax
    526b:	48 8b 40 28          	mov    0x28(%rax),%rax
    526f:	48 8d 48 01          	lea    0x1(%rax),%rcx
    5273:	48 8b 55 f8          	mov    -0x8(%rbp),%rdx
    5277:	48 89 4a 28          	mov    %rcx,0x28(%rdx)
    527b:	48 01 f0             	add    %rsi,%rax
    527e:	c6 00 08             	movb   $0x8,(%rax)
    5281:	48 8b 45 f8          	mov    -0x8(%rbp),%rax
    5285:	48 8b 40 38          	mov    0x38(%rax),%rax
    5289:	48 85 c0             	test   %rax,%rax
    528c:	0f 85 6a 01 00 00    	jne    53fc <deflate+0x531>
    5292:	48 8b 45 f8          	mov    -0x8(%rbp),%rax
    5296:	48 8b 70 10          	mov    0x10(%rax),%rsi
    529a:	48 8b 45 f8          	mov    -0x8(%rbp),%rax
    529e:	48 8b 40 28          	mov    0x28(%rax),%rax
    52a2:	48 8d 48 01          	lea    0x1(%rax),%rcx
    52a6:	48 8b 55 f8          	mov    -0x8(%rbp),%rdx
    52aa:	48 89 4a 28          	mov    %rcx,0x28(%rdx)
    52ae:	48 01 f0             	add    %rsi,%rax
    52b1:	c6 00 00             	movb   $0x0,(%rax)
    52b4:	48 8b 45 f8          	mov    -0x8(%rbp),%rax
    52b8:	48 8b 70 10          	mov    0x10(%rax),%rsi
    52bc:	48 8b 45 f8          	mov    -0x8(%rbp),%rax
    52c0:	48 8b 40 28          	mov    0x28(%rax),%rax
    52c4:	48 8d 48 01          	lea    0x1(%rax),%rcx
    52c8:	48 8b 55 f8          	mov    -0x8(%rbp),%rdx
    52cc:	48 89 4a 28          	mov    %rcx,0x28(%rdx)
    52d0:	48 01 f0             	add    %rsi,%rax
    52d3:	c6 00 00             	movb   $0x0,(%rax)
    52d6:	48 8b 45 f8          	mov    -0x8(%rbp),%rax
    52da:	48 8b 70 10          	mov    0x10(%rax),%rsi
    52de:	48 8b 45 f8          	mov    -0x8(%rbp),%rax
    52e2:	48 8b 40 28          	mov    0x28(%rax),%rax
    52e6:	48 8d 48 01          	lea    0x1(%rax),%rcx
    52ea:	48 8b 55 f8          	mov    -0x8(%rbp),%rdx
    52ee:	48 89 4a 28          	mov    %rcx,0x28(%rdx)
    52f2:	48 01 f0             	add    %rsi,%rax
    52f5:	c6 00 00             	movb   $0x0,(%rax)
    52f8:	48 8b 45 f8          	mov    -0x8(%rbp),%rax
    52fc:	48 8b 70 10          	mov    0x10(%rax),%rsi
    5300:	48 8b 45 f8          	mov    -0x8(%rbp),%rax
    5304:	48 8b 40 28          	mov    0x28(%rax),%rax
    5308:	48 8d 48 01          	lea    0x1(%rax),%rcx
    530c:	48 8b 55 f8          	mov    -0x8(%rbp),%rdx
    5310:	48 89 4a 28          	mov    %rcx,0x28(%rdx)
    5314:	48 01 f0             	add    %rsi,%rax
    5317:	c6 00 00             	movb   $0x0,(%rax)
    531a:	48 8b 45 f8          	mov    -0x8(%rbp),%rax
    531e:	48 8b 70 10          	mov    0x10(%rax),%rsi
    5322:	48 8b 45 f8          	mov    -0x8(%rbp),%rax
    5326:	48 8b 40 28          	mov    0x28(%rax),%rax
    532a:	48 8d 48 01          	lea    0x1(%rax),%rcx
    532e:	48 8b 55 f8          	mov    -0x8(%rbp),%rdx
    5332:	48 89 4a 28          	mov    %rcx,0x28(%rdx)
    5336:	48 01 f0             	add    %rsi,%rax
    5339:	c6 00 00             	movb   $0x0,(%rax)
    533c:	48 8b 45 f8          	mov    -0x8(%rbp),%rax
    5340:	8b 80 c4 00 00 00    	mov    0xc4(%rax),%eax
    5346:	83 f8 09             	cmp    $0x9,%eax
    5349:	74 2c                	je     5377 <deflate+0x4ac>
    534b:	48 8b 45 f8          	mov    -0x8(%rbp),%rax
    534f:	8b 80 c8 00 00 00    	mov    0xc8(%rax),%eax
    5355:	83 f8 01             	cmp    $0x1,%eax
    5358:	7f 0f                	jg     5369 <deflate+0x49e>
    535a:	48 8b 45 f8          	mov    -0x8(%rbp),%rax
    535e:	8b 80 c4 00 00 00    	mov    0xc4(%rax),%eax
    5364:	83 f8 01             	cmp    $0x1,%eax
    5367:	7f 07                	jg     5370 <deflate+0x4a5>
    5369:	ba 04 00 00 00       	mov    $0x4,%edx
    536e:	eb 0c                	jmp    537c <deflate+0x4b1>
    5370:	ba 00 00 00 00       	mov    $0x0,%edx
    5375:	eb 05                	jmp    537c <deflate+0x4b1>
    5377:	ba 02 00 00 00       	mov    $0x2,%edx
    537c:	48 8b 45 f8          	mov    -0x8(%rbp),%rax
    5380:	48 8b 78 10          	mov    0x10(%rax),%rdi
    5384:	48 8b 45 f8          	mov    -0x8(%rbp),%rax
    5388:	48 8b 40 28          	mov    0x28(%rax),%rax
    538c:	48 8d 70 01          	lea    0x1(%rax),%rsi
    5390:	48 8b 4d f8          	mov    -0x8(%rbp),%rcx
    5394:	48 89 71 28          	mov    %rsi,0x28(%rcx)
    5398:	48 01 f8             	add    %rdi,%rax
    539b:	88 10                	mov    %dl,(%rax)
    539d:	48 8b 45 f8          	mov    -0x8(%rbp),%rax
    53a1:	48 8b 70 10          	mov    0x10(%rax),%rsi
    53a5:	48 8b 45 f8          	mov    -0x8(%rbp),%rax
    53a9:	48 8b 40 28          	mov    0x28(%rax),%rax
    53ad:	48 8d 48 01          	lea    0x1(%rax),%rcx
    53b1:	48 8b 55 f8          	mov    -0x8(%rbp),%rdx
    53b5:	48 89 4a 28          	mov    %rcx,0x28(%rdx)
    53b9:	48 01 f0             	add    %rsi,%rax
    53bc:	c6 00 03             	movb   $0x3,(%rax)
    53bf:	48 8b 45 f8          	mov    -0x8(%rbp),%rax
    53c3:	c7 40 08 71 00 00 00 	movl   $0x71,0x8(%rax)
    53ca:	48 8b 45 b8          	mov    -0x48(%rbp),%rax
    53ce:	48 89 c7             	mov    %rax,%rdi
    53d1:	e8 fb f9 ff ff       	callq  4dd1 <flush_pending>
    53d6:	48 8b 45 f8          	mov    -0x8(%rbp),%rax
    53da:	48 8b 40 28          	mov    0x28(%rax),%rax
    53de:	48 85 c0             	test   %rax,%rax
    53e1:	0f 84 f7 02 00 00    	je     56de <deflate+0x813>
    53e7:	48 8b 45 f8          	mov    -0x8(%rbp),%rax
    53eb:	c7 40 4c ff ff ff ff 	movl   $0xffffffff,0x4c(%rax)
    53f2:	b8 00 00 00 00       	mov    $0x0,%eax
    53f7:	e9 b2 0d 00 00       	jmpq   61ae <deflate+0x12e3>
    53fc:	48 8b 45 f8          	mov    -0x8(%rbp),%rax
    5400:	48 8b 40 38          	mov    0x38(%rax),%rax
    5404:	8b 00                	mov    (%rax),%eax
    5406:	85 c0                	test   %eax,%eax
    5408:	74 07                	je     5411 <deflate+0x546>
    540a:	ba 01 00 00 00       	mov    $0x1,%edx
    540f:	eb 05                	jmp    5416 <deflate+0x54b>
    5411:	ba 00 00 00 00       	mov    $0x0,%edx
    5416:	48 8b 45 f8          	mov    -0x8(%rbp),%rax
    541a:	48 8b 40 38          	mov    0x38(%rax),%rax
    541e:	8b 40 44             	mov    0x44(%rax),%eax
    5421:	85 c0                	test   %eax,%eax
    5423:	74 07                	je     542c <deflate+0x561>
    5425:	b8 02 00 00 00       	mov    $0x2,%eax
    542a:	eb 05                	jmp    5431 <deflate+0x566>
    542c:	b8 00 00 00 00       	mov    $0x0,%eax
    5431:	01 c2                	add    %eax,%edx
    5433:	48 8b 45 f8          	mov    -0x8(%rbp),%rax
    5437:	48 8b 40 38          	mov    0x38(%rax),%rax
    543b:	48 8b 40 18          	mov    0x18(%rax),%rax
    543f:	48 85 c0             	test   %rax,%rax
    5442:	75 07                	jne    544b <deflate+0x580>
    5444:	b8 00 00 00 00       	mov    $0x0,%eax
    5449:	eb 05                	jmp    5450 <deflate+0x585>
    544b:	b8 04 00 00 00       	mov    $0x4,%eax
    5450:	01 c2                	add    %eax,%edx
    5452:	48 8b 45 f8          	mov    -0x8(%rbp),%rax
    5456:	48 8b 40 38          	mov    0x38(%rax),%rax
    545a:	48 8b 40 28          	mov    0x28(%rax),%rax
    545e:	48 85 c0             	test   %rax,%rax
    5461:	75 07                	jne    546a <deflate+0x59f>
    5463:	b8 00 00 00 00       	mov    $0x0,%eax
    5468:	eb 05                	jmp    546f <deflate+0x5a4>
    546a:	b8 08 00 00 00       	mov    $0x8,%eax
    546f:	8d 3c 10             	lea    (%rax,%rdx,1),%edi
    5472:	48 8b 45 f8          	mov    -0x8(%rbp),%rax
    5476:	48 8b 40 38          	mov    0x38(%rax),%rax
    547a:	48 8b 40 38          	mov    0x38(%rax),%rax
    547e:	48 85 c0             	test   %rax,%rax
    5481:	75 08                	jne    548b <deflate+0x5c0>
    5483:	41 b8 00 00 00 00    	mov    $0x0,%r8d
    5489:	eb 06                	jmp    5491 <deflate+0x5c6>
    548b:	41 b8 10 00 00 00    	mov    $0x10,%r8d
    5491:	48 8b 45 f8          	mov    -0x8(%rbp),%rax
    5495:	48 8b 70 10          	mov    0x10(%rax),%rsi
    5499:	48 8b 45 f8          	mov    -0x8(%rbp),%rax
    549d:	48 8b 40 28          	mov    0x28(%rax),%rax
    54a1:	48 8d 48 01          	lea    0x1(%rax),%rcx
    54a5:	48 8b 55 f8          	mov    -0x8(%rbp),%rdx
    54a9:	48 89 4a 28          	mov    %rcx,0x28(%rdx)
    54ad:	48 01 f0             	add    %rsi,%rax
    54b0:	41 8d 14 38          	lea    (%r8,%rdi,1),%edx
    54b4:	88 10                	mov    %dl,(%rax)
    54b6:	48 8b 45 f8          	mov    -0x8(%rbp),%rax
    54ba:	48 8b 40 38          	mov    0x38(%rax),%rax
    54be:	48 8b 70 08          	mov    0x8(%rax),%rsi
    54c2:	48 8b 45 f8          	mov    -0x8(%rbp),%rax
    54c6:	48 8b 78 10          	mov    0x10(%rax),%rdi
    54ca:	48 8b 45 f8          	mov    -0x8(%rbp),%rax
    54ce:	48 8b 40 28          	mov    0x28(%rax),%rax
    54d2:	48 8d 48 01          	lea    0x1(%rax),%rcx
    54d6:	48 8b 55 f8          	mov    -0x8(%rbp),%rdx
    54da:	48 89 4a 28          	mov    %rcx,0x28(%rdx)
    54de:	48 01 f8             	add    %rdi,%rax
    54e1:	89 f2                	mov    %esi,%edx
    54e3:	88 10                	mov    %dl,(%rax)
    54e5:	48 8b 45 f8          	mov    -0x8(%rbp),%rax
    54e9:	48 8b 40 38          	mov    0x38(%rax),%rax
    54ed:	48 8b 40 08          	mov    0x8(%rax),%rax
    54f1:	48 c1 e8 08          	shr    $0x8,%rax
    54f5:	48 89 c7             	mov    %rax,%rdi
    54f8:	48 8b 45 f8          	mov    -0x8(%rbp),%rax
    54fc:	48 8b 70 10          	mov    0x10(%rax),%rsi
    5500:	48 8b 45 f8          	mov    -0x8(%rbp),%rax
    5504:	48 8b 40 28          	mov    0x28(%rax),%rax
    5508:	48 8d 48 01          	lea    0x1(%rax),%rcx
    550c:	48 8b 55 f8          	mov    -0x8(%rbp),%rdx
    5510:	48 89 4a 28          	mov    %rcx,0x28(%rdx)
    5514:	48 01 f0             	add    %rsi,%rax
    5517:	89 fa                	mov    %edi,%edx
    5519:	88 10                	mov    %dl,(%rax)
    551b:	48 8b 45 f8          	mov    -0x8(%rbp),%rax
    551f:	48 8b 40 38          	mov    0x38(%rax),%rax
    5523:	48 8b 40 08          	mov    0x8(%rax),%rax
    5527:	48 c1 e8 10          	shr    $0x10,%rax
    552b:	48 89 c7             	mov    %rax,%rdi
    552e:	48 8b 45 f8          	mov    -0x8(%rbp),%rax
    5532:	48 8b 70 10          	mov    0x10(%rax),%rsi
    5536:	48 8b 45 f8          	mov    -0x8(%rbp),%rax
    553a:	48 8b 40 28          	mov    0x28(%rax),%rax
    553e:	48 8d 48 01          	lea    0x1(%rax),%rcx
    5542:	48 8b 55 f8          	mov    -0x8(%rbp),%rdx
    5546:	48 89 4a 28          	mov    %rcx,0x28(%rdx)
    554a:	48 01 f0             	add    %rsi,%rax
    554d:	89 fa                	mov    %edi,%edx
    554f:	88 10                	mov    %dl,(%rax)
    5551:	48 8b 45 f8          	mov    -0x8(%rbp),%rax
    5555:	48 8b 40 38          	mov    0x38(%rax),%rax
    5559:	48 8b 40 08          	mov    0x8(%rax),%rax
    555d:	48 c1 e8 18          	shr    $0x18,%rax
    5561:	48 89 c7             	mov    %rax,%rdi
    5564:	48 8b 45 f8          	mov    -0x8(%rbp),%rax
    5568:	48 8b 70 10          	mov    0x10(%rax),%rsi
    556c:	48 8b 45 f8          	mov    -0x8(%rbp),%rax
    5570:	48 8b 40 28          	mov    0x28(%rax),%rax
    5574:	48 8d 48 01          	lea    0x1(%rax),%rcx
    5578:	48 8b 55 f8          	mov    -0x8(%rbp),%rdx
    557c:	48 89 4a 28          	mov    %rcx,0x28(%rdx)
    5580:	48 01 f0             	add    %rsi,%rax
    5583:	89 fa                	mov    %edi,%edx
    5585:	88 10                	mov    %dl,(%rax)
    5587:	48 8b 45 f8          	mov    -0x8(%rbp),%rax
    558b:	8b 80 c4 00 00 00    	mov    0xc4(%rax),%eax
    5591:	83 f8 09             	cmp    $0x9,%eax
    5594:	74 2c                	je     55c2 <deflate+0x6f7>
    5596:	48 8b 45 f8          	mov    -0x8(%rbp),%rax
    559a:	8b 80 c8 00 00 00    	mov    0xc8(%rax),%eax
    55a0:	83 f8 01             	cmp    $0x1,%eax
    55a3:	7f 0f                	jg     55b4 <deflate+0x6e9>
    55a5:	48 8b 45 f8          	mov    -0x8(%rbp),%rax
    55a9:	8b 80 c4 00 00 00    	mov    0xc4(%rax),%eax
    55af:	83 f8 01             	cmp    $0x1,%eax
    55b2:	7f 07                	jg     55bb <deflate+0x6f0>
    55b4:	ba 04 00 00 00       	mov    $0x4,%edx
    55b9:	eb 0c                	jmp    55c7 <deflate+0x6fc>
    55bb:	ba 00 00 00 00       	mov    $0x0,%edx
    55c0:	eb 05                	jmp    55c7 <deflate+0x6fc>
    55c2:	ba 02 00 00 00       	mov    $0x2,%edx
    55c7:	48 8b 45 f8          	mov    -0x8(%rbp),%rax
    55cb:	48 8b 78 10          	mov    0x10(%rax),%rdi
    55cf:	48 8b 45 f8          	mov    -0x8(%rbp),%rax
    55d3:	48 8b 40 28          	mov    0x28(%rax),%rax
    55d7:	48 8d 70 01          	lea    0x1(%rax),%rsi
    55db:	48 8b 4d f8          	mov    -0x8(%rbp),%rcx
    55df:	48 89 71 28          	mov    %rsi,0x28(%rcx)
    55e3:	48 01 f8             	add    %rdi,%rax
    55e6:	88 10                	mov    %dl,(%rax)
    55e8:	48 8b 45 f8          	mov    -0x8(%rbp),%rax
    55ec:	48 8b 40 38          	mov    0x38(%rax),%rax
    55f0:	8b 70 14             	mov    0x14(%rax),%esi
    55f3:	48 8b 45 f8          	mov    -0x8(%rbp),%rax
    55f7:	48 8b 78 10          	mov    0x10(%rax),%rdi
    55fb:	48 8b 45 f8          	mov    -0x8(%rbp),%rax
    55ff:	48 8b 40 28          	mov    0x28(%rax),%rax
    5603:	48 8d 48 01          	lea    0x1(%rax),%rcx
    5607:	48 8b 55 f8          	mov    -0x8(%rbp),%rdx
    560b:	48 89 4a 28          	mov    %rcx,0x28(%rdx)
    560f:	48 01 f8             	add    %rdi,%rax
    5612:	89 f2                	mov    %esi,%edx
    5614:	88 10                	mov    %dl,(%rax)
    5616:	48 8b 45 f8          	mov    -0x8(%rbp),%rax
    561a:	48 8b 40 38          	mov    0x38(%rax),%rax
    561e:	48 8b 40 18          	mov    0x18(%rax),%rax
    5622:	48 85 c0             	test   %rax,%rax
    5625:	74 61                	je     5688 <deflate+0x7bd>
    5627:	48 8b 45 f8          	mov    -0x8(%rbp),%rax
    562b:	48 8b 40 38          	mov    0x38(%rax),%rax
    562f:	8b 70 20             	mov    0x20(%rax),%esi
    5632:	48 8b 45 f8          	mov    -0x8(%rbp),%rax
    5636:	48 8b 78 10          	mov    0x10(%rax),%rdi
    563a:	48 8b 45 f8          	mov    -0x8(%rbp),%rax
    563e:	48 8b 40 28          	mov    0x28(%rax),%rax
    5642:	48 8d 48 01          	lea    0x1(%rax),%rcx
    5646:	48 8b 55 f8          	mov    -0x8(%rbp),%rdx
    564a:	48 89 4a 28          	mov    %rcx,0x28(%rdx)
    564e:	48 01 f8             	add    %rdi,%rax
    5651:	89 f2                	mov    %esi,%edx
    5653:	88 10                	mov    %dl,(%rax)
    5655:	48 8b 45 f8          	mov    -0x8(%rbp),%rax
    5659:	48 8b 40 38          	mov    0x38(%rax),%rax
    565d:	8b 40 20             	mov    0x20(%rax),%eax
    5660:	c1 e8 08             	shr    $0x8,%eax
    5663:	89 c7                	mov    %eax,%edi
    5665:	48 8b 45 f8          	mov    -0x8(%rbp),%rax
    5669:	48 8b 70 10          	mov    0x10(%rax),%rsi
    566d:	48 8b 45 f8          	mov    -0x8(%rbp),%rax
    5671:	48 8b 40 28          	mov    0x28(%rax),%rax
    5675:	48 8d 48 01          	lea    0x1(%rax),%rcx
    5679:	48 8b 55 f8          	mov    -0x8(%rbp),%rdx
    567d:	48 89 4a 28          	mov    %rcx,0x28(%rdx)
    5681:	48 01 f0             	add    %rsi,%rax
    5684:	89 fa                	mov    %edi,%edx
    5686:	88 10                	mov    %dl,(%rax)
    5688:	48 8b 45 f8          	mov    -0x8(%rbp),%rax
    568c:	48 8b 40 38          	mov    0x38(%rax),%rax
    5690:	8b 40 44             	mov    0x44(%rax),%eax
    5693:	85 c0                	test   %eax,%eax
    5695:	74 30                	je     56c7 <deflate+0x7fc>
    5697:	48 8b 45 f8          	mov    -0x8(%rbp),%rax
    569b:	48 8b 40 28          	mov    0x28(%rax),%rax
    569f:	89 c2                	mov    %eax,%edx
    56a1:	48 8b 45 f8          	mov    -0x8(%rbp),%rax
    56a5:	48 8b 48 10          	mov    0x10(%rax),%rcx
    56a9:	48 8b 45 b8          	mov    -0x48(%rbp),%rax
    56ad:	48 8b 40 60          	mov    0x60(%rax),%rax
    56b1:	48 89 ce             	mov    %rcx,%rsi
    56b4:	48 89 c7             	mov    %rax,%rdi
    56b7:	e8 54 ca ff ff       	callq  2110 <crc32@plt>
    56bc:	48 89 c2             	mov    %rax,%rdx
    56bf:	48 8b 45 b8          	mov    -0x48(%rbp),%rax
    56c3:	48 89 50 60          	mov    %rdx,0x60(%rax)
    56c7:	48 8b 45 f8          	mov    -0x8(%rbp),%rax
    56cb:	48 c7 40 40 00 00 00 	movq   $0x0,0x40(%rax)
    56d2:	00 
    56d3:	48 8b 45 f8          	mov    -0x8(%rbp),%rax
    56d7:	c7 40 08 45 00 00 00 	movl   $0x45,0x8(%rax)
    56de:	48 8b 45 f8          	mov    -0x8(%rbp),%rax
    56e2:	8b 40 08             	mov    0x8(%rax),%eax
    56e5:	83 f8 45             	cmp    $0x45,%eax
    56e8:	0f 85 30 02 00 00    	jne    591e <deflate+0xa53>
    56ee:	48 8b 45 f8          	mov    -0x8(%rbp),%rax
    56f2:	48 8b 40 38          	mov    0x38(%rax),%rax
    56f6:	48 8b 40 18          	mov    0x18(%rax),%rax
    56fa:	48 85 c0             	test   %rax,%rax
    56fd:	0f 84 10 02 00 00    	je     5913 <deflate+0xa48>
    5703:	48 8b 45 f8          	mov    -0x8(%rbp),%rax
    5707:	48 8b 40 28          	mov    0x28(%rax),%rax
    570b:	48 89 45 e0          	mov    %rax,-0x20(%rbp)
    570f:	48 8b 45 f8          	mov    -0x8(%rbp),%rax
    5713:	48 8b 40 38          	mov    0x38(%rax),%rax
    5717:	8b 40 20             	mov    0x20(%rax),%eax
    571a:	0f b7 d0             	movzwl %ax,%edx
    571d:	48 8b 45 f8          	mov    -0x8(%rbp),%rax
    5721:	48 8b 40 40          	mov    0x40(%rax),%rax
    5725:	29 c2                	sub    %eax,%edx
    5727:	89 d0                	mov    %edx,%eax
    5729:	89 45 c8             	mov    %eax,-0x38(%rbp)
    572c:	e9 0e 01 00 00       	jmpq   583f <deflate+0x974>
    5731:	48 8b 45 f8          	mov    -0x8(%rbp),%rax
    5735:	48 8b 40 18          	mov    0x18(%rax),%rax
    5739:	89 c2                	mov    %eax,%edx
    573b:	48 8b 45 f8          	mov    -0x8(%rbp),%rax
    573f:	48 8b 40 28          	mov    0x28(%rax),%rax
    5743:	29 c2                	sub    %eax,%edx
    5745:	89 d0                	mov    %edx,%eax
    5747:	89 45 d0             	mov    %eax,-0x30(%rbp)
    574a:	8b 45 d0             	mov    -0x30(%rbp),%eax
    574d:	48 8b 55 f8          	mov    -0x8(%rbp),%rdx
    5751:	48 8b 52 38          	mov    0x38(%rdx),%rdx
    5755:	48 8b 4a 18          	mov    0x18(%rdx),%rcx
    5759:	48 8b 55 f8          	mov    -0x8(%rbp),%rdx
    575d:	48 8b 52 40          	mov    0x40(%rdx),%rdx
    5761:	48 8d 34 11          	lea    (%rcx,%rdx,1),%rsi
    5765:	48 8b 55 f8          	mov    -0x8(%rbp),%rdx
    5769:	48 8b 4a 10          	mov    0x10(%rdx),%rcx
    576d:	48 8b 55 f8          	mov    -0x8(%rbp),%rdx
    5771:	48 8b 52 28          	mov    0x28(%rdx),%rdx
    5775:	48 01 d1             	add    %rdx,%rcx
    5778:	48 89 c2             	mov    %rax,%rdx
    577b:	48 89 cf             	mov    %rcx,%rdi
    577e:	e8 8d ca ff ff       	callq  2210 <memcpy@plt>
    5783:	48 8b 45 f8          	mov    -0x8(%rbp),%rax
    5787:	48 8b 50 18          	mov    0x18(%rax),%rdx
    578b:	48 8b 45 f8          	mov    -0x8(%rbp),%rax
    578f:	48 89 50 28          	mov    %rdx,0x28(%rax)
    5793:	48 8b 45 f8          	mov    -0x8(%rbp),%rax
    5797:	48 8b 40 38          	mov    0x38(%rax),%rax
    579b:	8b 40 44             	mov    0x44(%rax),%eax
    579e:	85 c0                	test   %eax,%eax
    57a0:	74 4b                	je     57ed <deflate+0x922>
    57a2:	48 8b 45 f8          	mov    -0x8(%rbp),%rax
    57a6:	48 8b 40 28          	mov    0x28(%rax),%rax
    57aa:	48 39 45 e0          	cmp    %rax,-0x20(%rbp)
    57ae:	73 3d                	jae    57ed <deflate+0x922>
    57b0:	48 8b 45 f8          	mov    -0x8(%rbp),%rax
    57b4:	48 8b 40 28          	mov    0x28(%rax),%rax
    57b8:	89 c2                	mov    %eax,%edx
    57ba:	48 8b 45 e0          	mov    -0x20(%rbp),%rax
    57be:	29 c2                	sub    %eax,%edx
    57c0:	48 8b 45 f8          	mov    -0x8(%rbp),%rax
    57c4:	48 8b 48 10          	mov    0x10(%rax),%rcx
    57c8:	48 8b 45 e0          	mov    -0x20(%rbp),%rax
    57cc:	48 01 c1             	add    %rax,%rcx
    57cf:	48 8b 45 b8          	mov    -0x48(%rbp),%rax
    57d3:	48 8b 40 60          	mov    0x60(%rax),%rax
    57d7:	48 89 ce             	mov    %rcx,%rsi
    57da:	48 89 c7             	mov    %rax,%rdi
    57dd:	e8 2e c9 ff ff       	callq  2110 <crc32@plt>
    57e2:	48 89 c2             	mov    %rax,%rdx
    57e5:	48 8b 45 b8          	mov    -0x48(%rbp),%rax
    57e9:	48 89 50 60          	mov    %rdx,0x60(%rax)
    57ed:	48 8b 45 f8          	mov    -0x8(%rbp),%rax
    57f1:	48 8b 50 40          	mov    0x40(%rax),%rdx
    57f5:	8b 45 d0             	mov    -0x30(%rbp),%eax
    57f8:	48 01 c2             	add    %rax,%rdx
    57fb:	48 8b 45 f8          	mov    -0x8(%rbp),%rax
    57ff:	48 89 50 40          	mov    %rdx,0x40(%rax)
    5803:	48 8b 45 b8          	mov    -0x48(%rbp),%rax
    5807:	48 89 c7             	mov    %rax,%rdi
    580a:	e8 c2 f5 ff ff       	callq  4dd1 <flush_pending>
    580f:	48 8b 45 f8          	mov    -0x8(%rbp),%rax
    5813:	48 8b 40 28          	mov    0x28(%rax),%rax
    5817:	48 85 c0             	test   %rax,%rax
    581a:	74 15                	je     5831 <deflate+0x966>
    581c:	48 8b 45 f8          	mov    -0x8(%rbp),%rax
    5820:	c7 40 4c ff ff ff ff 	movl   $0xffffffff,0x4c(%rax)
    5827:	b8 00 00 00 00       	mov    $0x0,%eax
    582c:	e9 7d 09 00 00       	jmpq   61ae <deflate+0x12e3>
    5831:	48 c7 45 e0 00 00 00 	movq   $0x0,-0x20(%rbp)
    5838:	00 
    5839:	8b 45 d0             	mov    -0x30(%rbp),%eax
    583c:	29 45 c8             	sub    %eax,-0x38(%rbp)
    583f:	48 8b 45 f8          	mov    -0x8(%rbp),%rax
    5843:	48 8b 50 28          	mov    0x28(%rax),%rdx
    5847:	8b 45 c8             	mov    -0x38(%rbp),%eax
    584a:	48 01 c2             	add    %rax,%rdx
    584d:	48 8b 45 f8          	mov    -0x8(%rbp),%rax
    5851:	48 8b 40 18          	mov    0x18(%rax),%rax
    5855:	48 39 c2             	cmp    %rax,%rdx
    5858:	0f 87 d3 fe ff ff    	ja     5731 <deflate+0x866>
    585e:	8b 45 c8             	mov    -0x38(%rbp),%eax
    5861:	48 8b 55 f8          	mov    -0x8(%rbp),%rdx
    5865:	48 8b 52 38          	mov    0x38(%rdx),%rdx
    5869:	48 8b 4a 18          	mov    0x18(%rdx),%rcx
    586d:	48 8b 55 f8          	mov    -0x8(%rbp),%rdx
    5871:	48 8b 52 40          	mov    0x40(%rdx),%rdx
    5875:	48 8d 34 11          	lea    (%rcx,%rdx,1),%rsi
    5879:	48 8b 55 f8          	mov    -0x8(%rbp),%rdx
    587d:	48 8b 4a 10          	mov    0x10(%rdx),%rcx
    5881:	48 8b 55 f8          	mov    -0x8(%rbp),%rdx
    5885:	48 8b 52 28          	mov    0x28(%rdx),%rdx
    5889:	48 01 d1             	add    %rdx,%rcx
    588c:	48 89 c2             	mov    %rax,%rdx
    588f:	48 89 cf             	mov    %rcx,%rdi
    5892:	e8 79 c9 ff ff       	callq  2210 <memcpy@plt>
    5897:	48 8b 45 f8          	mov    -0x8(%rbp),%rax
    589b:	48 8b 50 28          	mov    0x28(%rax),%rdx
    589f:	8b 45 c8             	mov    -0x38(%rbp),%eax
    58a2:	48 01 c2             	add    %rax,%rdx
    58a5:	48 8b 45 f8          	mov    -0x8(%rbp),%rax
    58a9:	48 89 50 28          	mov    %rdx,0x28(%rax)
    58ad:	48 8b 45 f8          	mov    -0x8(%rbp),%rax
    58b1:	48 8b 40 38          	mov    0x38(%rax),%rax
    58b5:	8b 40 44             	mov    0x44(%rax),%eax
    58b8:	85 c0                	test   %eax,%eax
    58ba:	74 4b                	je     5907 <deflate+0xa3c>
    58bc:	48 8b 45 f8          	mov    -0x8(%rbp),%rax
    58c0:	48 8b 40 28          	mov    0x28(%rax),%rax
    58c4:	48 39 45 e0          	cmp    %rax,-0x20(%rbp)
    58c8:	73 3d                	jae    5907 <deflate+0xa3c>
    58ca:	48 8b 45 f8          	mov    -0x8(%rbp),%rax
    58ce:	48 8b 40 28          	mov    0x28(%rax),%rax
    58d2:	89 c2                	mov    %eax,%edx
    58d4:	48 8b 45 e0          	mov    -0x20(%rbp),%rax
    58d8:	29 c2                	sub    %eax,%edx
    58da:	48 8b 45 f8          	mov    -0x8(%rbp),%rax
    58de:	48 8b 48 10          	mov    0x10(%rax),%rcx
    58e2:	48 8b 45 e0          	mov    -0x20(%rbp),%rax
    58e6:	48 01 c1             	add    %rax,%rcx
    58e9:	48 8b 45 b8          	mov    -0x48(%rbp),%rax
    58ed:	48 8b 40 60          	mov    0x60(%rax),%rax
    58f1:	48 89 ce             	mov    %rcx,%rsi
    58f4:	48 89 c7             	mov    %rax,%rdi
    58f7:	e8 14 c8 ff ff       	callq  2110 <crc32@plt>
    58fc:	48 89 c2             	mov    %rax,%rdx
    58ff:	48 8b 45 b8          	mov    -0x48(%rbp),%rax
    5903:	48 89 50 60          	mov    %rdx,0x60(%rax)
    5907:	48 8b 45 f8          	mov    -0x8(%rbp),%rax
    590b:	48 c7 40 40 00 00 00 	movq   $0x0,0x40(%rax)
    5912:	00 
    5913:	48 8b 45 f8          	mov    -0x8(%rbp),%rax
    5917:	c7 40 08 49 00 00 00 	movl   $0x49,0x8(%rax)
    591e:	48 8b 45 f8          	mov    -0x8(%rbp),%rax
    5922:	8b 40 08             	mov    0x8(%rax),%eax
    5925:	83 f8 49             	cmp    $0x49,%eax
    5928:	0f 85 95 01 00 00    	jne    5ac3 <deflate+0xbf8>
    592e:	48 8b 45 f8          	mov    -0x8(%rbp),%rax
    5932:	48 8b 40 38          	mov    0x38(%rax),%rax
    5936:	48 8b 40 28          	mov    0x28(%rax),%rax
    593a:	48 85 c0             	test   %rax,%rax
    593d:	0f 84 75 01 00 00    	je     5ab8 <deflate+0xbed>
    5943:	48 8b 45 f8          	mov    -0x8(%rbp),%rax
    5947:	48 8b 40 28          	mov    0x28(%rax),%rax
    594b:	48 89 45 e8          	mov    %rax,-0x18(%rbp)
    594f:	48 8b 45 f8          	mov    -0x8(%rbp),%rax
    5953:	48 8b 50 28          	mov    0x28(%rax),%rdx
    5957:	48 8b 45 f8          	mov    -0x8(%rbp),%rax
    595b:	48 8b 40 18          	mov    0x18(%rax),%rax
    595f:	48 39 c2             	cmp    %rax,%rdx
    5962:	0f 85 90 00 00 00    	jne    59f8 <deflate+0xb2d>
    5968:	48 8b 45 f8          	mov    -0x8(%rbp),%rax
    596c:	48 8b 40 38          	mov    0x38(%rax),%rax
    5970:	8b 40 44             	mov    0x44(%rax),%eax
    5973:	85 c0                	test   %eax,%eax
    5975:	74 4b                	je     59c2 <deflate+0xaf7>
    5977:	48 8b 45 f8          	mov    -0x8(%rbp),%rax
    597b:	48 8b 40 28          	mov    0x28(%rax),%rax
    597f:	48 39 45 e8          	cmp    %rax,-0x18(%rbp)
    5983:	73 3d                	jae    59c2 <deflate+0xaf7>
    5985:	48 8b 45 f8          	mov    -0x8(%rbp),%rax
    5989:	48 8b 40 28          	mov    0x28(%rax),%rax
    598d:	89 c2                	mov    %eax,%edx
    598f:	48 8b 45 e8          	mov    -0x18(%rbp),%rax
    5993:	29 c2                	sub    %eax,%edx
    5995:	48 8b 45 f8          	mov    -0x8(%rbp),%rax
    5999:	48 8b 48 10          	mov    0x10(%rax),%rcx
    599d:	48 8b 45 e8          	mov    -0x18(%rbp),%rax
    59a1:	48 01 c1             	add    %rax,%rcx
    59a4:	48 8b 45 b8          	mov    -0x48(%rbp),%rax
    59a8:	48 8b 40 60          	mov    0x60(%rax),%rax
    59ac:	48 89 ce             	mov    %rcx,%rsi
    59af:	48 89 c7             	mov    %rax,%rdi
    59b2:	e8 59 c7 ff ff       	callq  2110 <crc32@plt>
    59b7:	48 89 c2             	mov    %rax,%rdx
    59ba:	48 8b 45 b8          	mov    -0x48(%rbp),%rax
    59be:	48 89 50 60          	mov    %rdx,0x60(%rax)
    59c2:	48 8b 45 b8          	mov    -0x48(%rbp),%rax
    59c6:	48 89 c7             	mov    %rax,%rdi
    59c9:	e8 03 f4 ff ff       	callq  4dd1 <flush_pending>
    59ce:	48 8b 45 f8          	mov    -0x8(%rbp),%rax
    59d2:	48 8b 40 28          	mov    0x28(%rax),%rax
    59d6:	48 85 c0             	test   %rax,%rax
    59d9:	74 15                	je     59f0 <deflate+0xb25>
    59db:	48 8b 45 f8          	mov    -0x8(%rbp),%rax
    59df:	c7 40 4c ff ff ff ff 	movl   $0xffffffff,0x4c(%rax)
    59e6:	b8 00 00 00 00       	mov    $0x0,%eax
    59eb:	e9 be 07 00 00       	jmpq   61ae <deflate+0x12e3>
    59f0:	48 c7 45 e8 00 00 00 	movq   $0x0,-0x18(%rbp)
    59f7:	00 
    59f8:	48 8b 45 f8          	mov    -0x8(%rbp),%rax
    59fc:	48 8b 40 38          	mov    0x38(%rax),%rax
    5a00:	48 8b 70 28          	mov    0x28(%rax),%rsi
    5a04:	48 8b 45 f8          	mov    -0x8(%rbp),%rax
    5a08:	48 8b 40 40          	mov    0x40(%rax),%rax
    5a0c:	48 8d 48 01          	lea    0x1(%rax),%rcx
    5a10:	48 8b 55 f8          	mov    -0x8(%rbp),%rdx
    5a14:	48 89 4a 40          	mov    %rcx,0x40(%rdx)
    5a18:	48 01 f0             	add    %rsi,%rax
    5a1b:	0f b6 00             	movzbl (%rax),%eax
    5a1e:	0f b6 c0             	movzbl %al,%eax
    5a21:	89 45 d4             	mov    %eax,-0x2c(%rbp)
    5a24:	48 8b 45 f8          	mov    -0x8(%rbp),%rax
    5a28:	48 8b 70 10          	mov    0x10(%rax),%rsi
    5a2c:	48 8b 45 f8          	mov    -0x8(%rbp),%rax
    5a30:	48 8b 40 28          	mov    0x28(%rax),%rax
    5a34:	48 8d 48 01          	lea    0x1(%rax),%rcx
    5a38:	48 8b 55 f8          	mov    -0x8(%rbp),%rdx
    5a3c:	48 89 4a 28          	mov    %rcx,0x28(%rdx)
    5a40:	48 01 f0             	add    %rsi,%rax
    5a43:	8b 55 d4             	mov    -0x2c(%rbp),%edx
    5a46:	88 10                	mov    %dl,(%rax)
    5a48:	83 7d d4 00          	cmpl   $0x0,-0x2c(%rbp)
    5a4c:	0f 85 fd fe ff ff    	jne    594f <deflate+0xa84>
    5a52:	48 8b 45 f8          	mov    -0x8(%rbp),%rax
    5a56:	48 8b 40 38          	mov    0x38(%rax),%rax
    5a5a:	8b 40 44             	mov    0x44(%rax),%eax
    5a5d:	85 c0                	test   %eax,%eax
    5a5f:	74 4b                	je     5aac <deflate+0xbe1>
    5a61:	48 8b 45 f8          	mov    -0x8(%rbp),%rax
    5a65:	48 8b 40 28          	mov    0x28(%rax),%rax
    5a69:	48 39 45 e8          	cmp    %rax,-0x18(%rbp)
    5a6d:	73 3d                	jae    5aac <deflate+0xbe1>
    5a6f:	48 8b 45 f8          	mov    -0x8(%rbp),%rax
    5a73:	48 8b 40 28          	mov    0x28(%rax),%rax
    5a77:	89 c2                	mov    %eax,%edx
    5a79:	48 8b 45 e8          	mov    -0x18(%rbp),%rax
    5a7d:	29 c2                	sub    %eax,%edx
    5a7f:	48 8b 45 f8          	mov    -0x8(%rbp),%rax
    5a83:	48 8b 48 10          	mov    0x10(%rax),%rcx
    5a87:	48 8b 45 e8          	mov    -0x18(%rbp),%rax
    5a8b:	48 01 c1             	add    %rax,%rcx
    5a8e:	48 8b 45 b8          	mov    -0x48(%rbp),%rax
    5a92:	48 8b 40 60          	mov    0x60(%rax),%rax
    5a96:	48 89 ce             	mov    %rcx,%rsi
    5a99:	48 89 c7             	mov    %rax,%rdi
    5a9c:	e8 6f c6 ff ff       	callq  2110 <crc32@plt>
    5aa1:	48 89 c2             	mov    %rax,%rdx
    5aa4:	48 8b 45 b8          	mov    -0x48(%rbp),%rax
    5aa8:	48 89 50 60          	mov    %rdx,0x60(%rax)
    5aac:	48 8b 45 f8          	mov    -0x8(%rbp),%rax
    5ab0:	48 c7 40 40 00 00 00 	movq   $0x0,0x40(%rax)
    5ab7:	00 
    5ab8:	48 8b 45 f8          	mov    -0x8(%rbp),%rax
    5abc:	c7 40 08 5b 00 00 00 	movl   $0x5b,0x8(%rax)
    5ac3:	48 8b 45 f8          	mov    -0x8(%rbp),%rax
    5ac7:	8b 40 08             	mov    0x8(%rax),%eax
    5aca:	83 f8 5b             	cmp    $0x5b,%eax
    5acd:	0f 85 89 01 00 00    	jne    5c5c <deflate+0xd91>
    5ad3:	48 8b 45 f8          	mov    -0x8(%rbp),%rax
    5ad7:	48 8b 40 38          	mov    0x38(%rax),%rax
    5adb:	48 8b 40 38          	mov    0x38(%rax),%rax
    5adf:	48 85 c0             	test   %rax,%rax
    5ae2:	0f 84 69 01 00 00    	je     5c51 <deflate+0xd86>
    5ae8:	48 8b 45 f8          	mov    -0x8(%rbp),%rax
    5aec:	48 8b 40 28          	mov    0x28(%rax),%rax
    5af0:	48 89 45 f0          	mov    %rax,-0x10(%rbp)
    5af4:	48 8b 45 f8          	mov    -0x8(%rbp),%rax
    5af8:	48 8b 50 28          	mov    0x28(%rax),%rdx
    5afc:	48 8b 45 f8          	mov    -0x8(%rbp),%rax
    5b00:	48 8b 40 18          	mov    0x18(%rax),%rax
    5b04:	48 39 c2             	cmp    %rax,%rdx
    5b07:	0f 85 90 00 00 00    	jne    5b9d <deflate+0xcd2>
    5b0d:	48 8b 45 f8          	mov    -0x8(%rbp),%rax
    5b11:	48 8b 40 38          	mov    0x38(%rax),%rax
    5b15:	8b 40 44             	mov    0x44(%rax),%eax
    5b18:	85 c0                	test   %eax,%eax
    5b1a:	74 4b                	je     5b67 <deflate+0xc9c>
    5b1c:	48 8b 45 f8          	mov    -0x8(%rbp),%rax
    5b20:	48 8b 40 28          	mov    0x28(%rax),%rax
    5b24:	48 39 45 f0          	cmp    %rax,-0x10(%rbp)
    5b28:	73 3d                	jae    5b67 <deflate+0xc9c>
    5b2a:	48 8b 45 f8          	mov    -0x8(%rbp),%rax
    5b2e:	48 8b 40 28          	mov    0x28(%rax),%rax
    5b32:	89 c2                	mov    %eax,%edx
    5b34:	48 8b 45 f0          	mov    -0x10(%rbp),%rax
    5b38:	29 c2                	sub    %eax,%edx
    5b3a:	48 8b 45 f8          	mov    -0x8(%rbp),%rax
    5b3e:	48 8b 48 10          	mov    0x10(%rax),%rcx
    5b42:	48 8b 45 f0          	mov    -0x10(%rbp),%rax
    5b46:	48 01 c1             	add    %rax,%rcx
    5b49:	48 8b 45 b8          	mov    -0x48(%rbp),%rax
    5b4d:	48 8b 40 60          	mov    0x60(%rax),%rax
    5b51:	48 89 ce             	mov    %rcx,%rsi
    5b54:	48 89 c7             	mov    %rax,%rdi
    5b57:	e8 b4 c5 ff ff       	callq  2110 <crc32@plt>
    5b5c:	48 89 c2             	mov    %rax,%rdx
    5b5f:	48 8b 45 b8          	mov    -0x48(%rbp),%rax
    5b63:	48 89 50 60          	mov    %rdx,0x60(%rax)
    5b67:	48 8b 45 b8          	mov    -0x48(%rbp),%rax
    5b6b:	48 89 c7             	mov    %rax,%rdi
    5b6e:	e8 5e f2 ff ff       	callq  4dd1 <flush_pending>
    5b73:	48 8b 45 f8          	mov    -0x8(%rbp),%rax
    5b77:	48 8b 40 28          	mov    0x28(%rax),%rax
    5b7b:	48 85 c0             	test   %rax,%rax
    5b7e:	74 15                	je     5b95 <deflate+0xcca>
    5b80:	48 8b 45 f8          	mov    -0x8(%rbp),%rax
    5b84:	c7 40 4c ff ff ff ff 	movl   $0xffffffff,0x4c(%rax)
    5b8b:	b8 00 00 00 00       	mov    $0x0,%eax
    5b90:	e9 19 06 00 00       	jmpq   61ae <deflate+0x12e3>
    5b95:	48 c7 45 f0 00 00 00 	movq   $0x0,-0x10(%rbp)
    5b9c:	00 
    5b9d:	48 8b 45 f8          	mov    -0x8(%rbp),%rax
    5ba1:	48 8b 40 38          	mov    0x38(%rax),%rax
    5ba5:	48 8b 70 38          	mov    0x38(%rax),%rsi
    5ba9:	48 8b 45 f8          	mov    -0x8(%rbp),%rax
    5bad:	48 8b 40 40          	mov    0x40(%rax),%rax
    5bb1:	48 8d 48 01          	lea    0x1(%rax),%rcx
    5bb5:	48 8b 55 f8          	mov    -0x8(%rbp),%rdx
    5bb9:	48 89 4a 40          	mov    %rcx,0x40(%rdx)
    5bbd:	48 01 f0             	add    %rsi,%rax
    5bc0:	0f b6 00             	movzbl (%rax),%eax
    5bc3:	0f b6 c0             	movzbl %al,%eax
    5bc6:	89 45 d8             	mov    %eax,-0x28(%rbp)
    5bc9:	48 8b 45 f8          	mov    -0x8(%rbp),%rax
    5bcd:	48 8b 70 10          	mov    0x10(%rax),%rsi
    5bd1:	48 8b 45 f8          	mov    -0x8(%rbp),%rax
    5bd5:	48 8b 40 28          	mov    0x28(%rax),%rax
    5bd9:	48 8d 48 01          	lea    0x1(%rax),%rcx
    5bdd:	48 8b 55 f8          	mov    -0x8(%rbp),%rdx
    5be1:	48 89 4a 28          	mov    %rcx,0x28(%rdx)
    5be5:	48 01 f0             	add    %rsi,%rax
    5be8:	8b 55 d8             	mov    -0x28(%rbp),%edx
    5beb:	88 10                	mov    %dl,(%rax)
    5bed:	83 7d d8 00          	cmpl   $0x0,-0x28(%rbp)
    5bf1:	0f 85 fd fe ff ff    	jne    5af4 <deflate+0xc29>
    5bf7:	48 8b 45 f8          	mov    -0x8(%rbp),%rax
    5bfb:	48 8b 40 38          	mov    0x38(%rax),%rax
    5bff:	8b 40 44             	mov    0x44(%rax),%eax
    5c02:	85 c0                	test   %eax,%eax
    5c04:	74 4b                	je     5c51 <deflate+0xd86>
    5c06:	48 8b 45 f8          	mov    -0x8(%rbp),%rax
    5c0a:	48 8b 40 28          	mov    0x28(%rax),%rax
    5c0e:	48 39 45 f0          	cmp    %rax,-0x10(%rbp)
    5c12:	73 3d                	jae    5c51 <deflate+0xd86>
    5c14:	48 8b 45 f8          	mov    -0x8(%rbp),%rax
    5c18:	48 8b 40 28          	mov    0x28(%rax),%rax
    5c1c:	89 c2                	mov    %eax,%edx
    5c1e:	48 8b 45 f0          	mov    -0x10(%rbp),%rax
    5c22:	29 c2                	sub    %eax,%edx
    5c24:	48 8b 45 f8          	mov    -0x8(%rbp),%rax
    5c28:	48 8b 48 10          	mov    0x10(%rax),%rcx
    5c2c:	48 8b 45 f0          	mov    -0x10(%rbp),%rax
    5c30:	48 01 c1             	add    %rax,%rcx
    5c33:	48 8b 45 b8          	mov    -0x48(%rbp),%rax
    5c37:	48 8b 40 60          	mov    0x60(%rax),%rax
    5c3b:	48 89 ce             	mov    %rcx,%rsi
    5c3e:	48 89 c7             	mov    %rax,%rdi
    5c41:	e8 ca c4 ff ff       	callq  2110 <crc32@plt>
    5c46:	48 89 c2             	mov    %rax,%rdx
    5c49:	48 8b 45 b8          	mov    -0x48(%rbp),%rax
    5c4d:	48 89 50 60          	mov    %rdx,0x60(%rax)
    5c51:	48 8b 45 f8          	mov    -0x8(%rbp),%rax
    5c55:	c7 40 08 67 00 00 00 	movl   $0x67,0x8(%rax)
    5c5c:	48 8b 45 f8          	mov    -0x8(%rbp),%rax
    5c60:	8b 40 08             	mov    0x8(%rax),%eax
    5c63:	83 f8 67             	cmp    $0x67,%eax
    5c66:	0f 85 0f 01 00 00    	jne    5d7b <deflate+0xeb0>
    5c6c:	48 8b 45 f8          	mov    -0x8(%rbp),%rax
    5c70:	48 8b 40 38          	mov    0x38(%rax),%rax
    5c74:	8b 40 44             	mov    0x44(%rax),%eax
    5c77:	85 c0                	test   %eax,%eax
    5c79:	0f 84 c3 00 00 00    	je     5d42 <deflate+0xe77>
    5c7f:	48 8b 45 f8          	mov    -0x8(%rbp),%rax
    5c83:	48 8b 40 28          	mov    0x28(%rax),%rax
    5c87:	48 8d 50 02          	lea    0x2(%rax),%rdx
    5c8b:	48 8b 45 f8          	mov    -0x8(%rbp),%rax
    5c8f:	48 8b 40 18          	mov    0x18(%rax),%rax
    5c93:	48 39 c2             	cmp    %rax,%rdx
    5c96:	76 2e                	jbe    5cc6 <deflate+0xdfb>
    5c98:	48 8b 45 b8          	mov    -0x48(%rbp),%rax
    5c9c:	48 89 c7             	mov    %rax,%rdi
    5c9f:	e8 2d f1 ff ff       	callq  4dd1 <flush_pending>
    5ca4:	48 8b 45 f8          	mov    -0x8(%rbp),%rax
    5ca8:	48 8b 40 28          	mov    0x28(%rax),%rax
    5cac:	48 85 c0             	test   %rax,%rax
    5caf:	74 15                	je     5cc6 <deflate+0xdfb>
    5cb1:	48 8b 45 f8          	mov    -0x8(%rbp),%rax
    5cb5:	c7 40 4c ff ff ff ff 	movl   $0xffffffff,0x4c(%rax)
    5cbc:	b8 00 00 00 00       	mov    $0x0,%eax
    5cc1:	e9 e8 04 00 00       	jmpq   61ae <deflate+0x12e3>
    5cc6:	48 8b 45 b8          	mov    -0x48(%rbp),%rax
    5cca:	48 8b 70 60          	mov    0x60(%rax),%rsi
    5cce:	48 8b 45 f8          	mov    -0x8(%rbp),%rax
    5cd2:	48 8b 78 10          	mov    0x10(%rax),%rdi
    5cd6:	48 8b 45 f8          	mov    -0x8(%rbp),%rax
    5cda:	48 8b 40 28          	mov    0x28(%rax),%rax
    5cde:	48 8d 48 01          	lea    0x1(%rax),%rcx
    5ce2:	48 8b 55 f8          	mov    -0x8(%rbp),%rdx
    5ce6:	48 89 4a 28          	mov    %rcx,0x28(%rdx)
    5cea:	48 01 f8             	add    %rdi,%rax
    5ced:	89 f2                	mov    %esi,%edx
    5cef:	88 10                	mov    %dl,(%rax)
    5cf1:	48 8b 45 b8          	mov    -0x48(%rbp),%rax
    5cf5:	48 8b 40 60          	mov    0x60(%rax),%rax
    5cf9:	48 c1 e8 08          	shr    $0x8,%rax
    5cfd:	48 89 c7             	mov    %rax,%rdi
    5d00:	48 8b 45 f8          	mov    -0x8(%rbp),%rax
    5d04:	48 8b 70 10          	mov    0x10(%rax),%rsi
    5d08:	48 8b 45 f8          	mov    -0x8(%rbp),%rax
    5d0c:	48 8b 40 28          	mov    0x28(%rax),%rax
    5d10:	48 8d 48 01          	lea    0x1(%rax),%rcx
    5d14:	48 8b 55 f8          	mov    -0x8(%rbp),%rdx
    5d18:	48 89 4a 28          	mov    %rcx,0x28(%rdx)
    5d1c:	48 01 f0             	add    %rsi,%rax
    5d1f:	89 fa                	mov    %edi,%edx
    5d21:	88 10                	mov    %dl,(%rax)
    5d23:	ba 00 00 00 00       	mov    $0x0,%edx
    5d28:	be 00 00 00 00       	mov    $0x0,%esi
    5d2d:	bf 00 00 00 00       	mov    $0x0,%edi
    5d32:	e8 d9 c3 ff ff       	callq  2110 <crc32@plt>
    5d37:	48 89 c2             	mov    %rax,%rdx
    5d3a:	48 8b 45 b8          	mov    -0x48(%rbp),%rax
    5d3e:	48 89 50 60          	mov    %rdx,0x60(%rax)
    5d42:	48 8b 45 f8          	mov    -0x8(%rbp),%rax
    5d46:	c7 40 08 71 00 00 00 	movl   $0x71,0x8(%rax)
    5d4d:	48 8b 45 b8          	mov    -0x48(%rbp),%rax
    5d51:	48 89 c7             	mov    %rax,%rdi
    5d54:	e8 78 f0 ff ff       	callq  4dd1 <flush_pending>
    5d59:	48 8b 45 f8          	mov    -0x8(%rbp),%rax
    5d5d:	48 8b 40 28          	mov    0x28(%rax),%rax
    5d61:	48 85 c0             	test   %rax,%rax
    5d64:	74 15                	je     5d7b <deflate+0xeb0>
    5d66:	48 8b 45 f8          	mov    -0x8(%rbp),%rax
    5d6a:	c7 40 4c ff ff ff ff 	movl   $0xffffffff,0x4c(%rax)
    5d71:	b8 00 00 00 00       	mov    $0x0,%eax
    5d76:	e9 33 04 00 00       	jmpq   61ae <deflate+0x12e3>
    5d7b:	48 8b 45 b8          	mov    -0x48(%rbp),%rax
    5d7f:	8b 40 08             	mov    0x8(%rax),%eax
    5d82:	85 c0                	test   %eax,%eax
    5d84:	75 2a                	jne    5db0 <deflate+0xee5>
    5d86:	48 8b 45 f8          	mov    -0x8(%rbp),%rax
    5d8a:	8b 80 b4 00 00 00    	mov    0xb4(%rax),%eax
    5d90:	85 c0                	test   %eax,%eax
    5d92:	75 1c                	jne    5db0 <deflate+0xee5>
    5d94:	83 7d b4 00          	cmpl   $0x0,-0x4c(%rbp)
    5d98:	0f 84 e8 01 00 00    	je     5f86 <deflate+0x10bb>
    5d9e:	48 8b 45 f8          	mov    -0x8(%rbp),%rax
    5da2:	8b 40 08             	mov    0x8(%rax),%eax
    5da5:	3d 9a 02 00 00       	cmp    $0x29a,%eax
    5daa:	0f 84 d6 01 00 00    	je     5f86 <deflate+0x10bb>
    5db0:	48 8b 45 f8          	mov    -0x8(%rbp),%rax
    5db4:	8b 80 c4 00 00 00    	mov    0xc4(%rax),%eax
    5dba:	85 c0                	test   %eax,%eax
    5dbc:	75 13                	jne    5dd1 <deflate+0xf06>
    5dbe:	8b 55 b4             	mov    -0x4c(%rbp),%edx
    5dc1:	48 8b 45 f8          	mov    -0x8(%rbp),%rax
    5dc5:	89 d6                	mov    %edx,%esi
    5dc7:	48 89 c7             	mov    %rax,%rdi
    5dca:	e8 59 12 00 00       	callq  7028 <deflate_stored>
    5dcf:	eb 70                	jmp    5e41 <deflate+0xf76>
    5dd1:	48 8b 45 f8          	mov    -0x8(%rbp),%rax
    5dd5:	8b 80 c8 00 00 00    	mov    0xc8(%rax),%eax
    5ddb:	83 f8 02             	cmp    $0x2,%eax
    5dde:	75 13                	jne    5df3 <deflate+0xf28>
    5de0:	8b 55 b4             	mov    -0x4c(%rbp),%edx
    5de3:	48 8b 45 f8          	mov    -0x8(%rbp),%rax
    5de7:	89 d6                	mov    %edx,%esi
    5de9:	48 89 c7             	mov    %rax,%rdi
    5dec:	e8 70 33 00 00       	callq  9161 <deflate_huff>
    5df1:	eb 4e                	jmp    5e41 <deflate+0xf76>
    5df3:	48 8b 45 f8          	mov    -0x8(%rbp),%rax
    5df7:	8b 80 c8 00 00 00    	mov    0xc8(%rax),%eax
    5dfd:	83 f8 03             	cmp    $0x3,%eax
    5e00:	75 13                	jne    5e15 <deflate+0xf4a>
    5e02:	8b 55 b4             	mov    -0x4c(%rbp),%edx
    5e05:	48 8b 45 f8          	mov    -0x8(%rbp),%rax
    5e09:	89 d6                	mov    %edx,%esi
    5e0b:	48 89 c7             	mov    %rax,%rdi
    5e0e:	e8 78 2c 00 00       	callq  8a8b <deflate_rle>
    5e13:	eb 2c                	jmp    5e41 <deflate+0xf76>
    5e15:	48 8b 45 f8          	mov    -0x8(%rbp),%rax
    5e19:	8b 80 c4 00 00 00    	mov    0xc4(%rax),%eax
    5e1f:	48 98                	cltq   
    5e21:	48 c1 e0 04          	shl    $0x4,%rax
    5e25:	48 89 c2             	mov    %rax,%rdx
    5e28:	48 8d 05 79 6e 21 00 	lea    0x216e79(%rip),%rax        # 21cca8 <configuration_table+0x8>
    5e2f:	48 8b 04 02          	mov    (%rdx,%rax,1),%rax
    5e33:	8b 4d b4             	mov    -0x4c(%rbp),%ecx
    5e36:	48 8b 55 f8          	mov    -0x8(%rbp),%rdx
    5e3a:	89 ce                	mov    %ecx,%esi
    5e3c:	48 89 d7             	mov    %rdx,%rdi
    5e3f:	ff d0                	callq  *%rax
    5e41:	89 45 dc             	mov    %eax,-0x24(%rbp)
    5e44:	83 7d dc 02          	cmpl   $0x2,-0x24(%rbp)
    5e48:	74 06                	je     5e50 <deflate+0xf85>
    5e4a:	83 7d dc 03          	cmpl   $0x3,-0x24(%rbp)
    5e4e:	75 0b                	jne    5e5b <deflate+0xf90>
    5e50:	48 8b 45 f8          	mov    -0x8(%rbp),%rax
    5e54:	c7 40 08 9a 02 00 00 	movl   $0x29a,0x8(%rax)
    5e5b:	83 7d dc 00          	cmpl   $0x0,-0x24(%rbp)
    5e5f:	74 06                	je     5e67 <deflate+0xf9c>
    5e61:	83 7d dc 02          	cmpl   $0x2,-0x24(%rbp)
    5e65:	75 20                	jne    5e87 <deflate+0xfbc>
    5e67:	48 8b 45 b8          	mov    -0x48(%rbp),%rax
    5e6b:	8b 40 20             	mov    0x20(%rax),%eax
    5e6e:	85 c0                	test   %eax,%eax
    5e70:	75 0b                	jne    5e7d <deflate+0xfb2>
    5e72:	48 8b 45 f8          	mov    -0x8(%rbp),%rax
    5e76:	c7 40 4c ff ff ff ff 	movl   $0xffffffff,0x4c(%rax)
    5e7d:	b8 00 00 00 00       	mov    $0x0,%eax
    5e82:	e9 27 03 00 00       	jmpq   61ae <deflate+0x12e3>
    5e87:	83 7d dc 01          	cmpl   $0x1,-0x24(%rbp)
    5e8b:	0f 85 f5 00 00 00    	jne    5f86 <deflate+0x10bb>
    5e91:	83 7d b4 01          	cmpl   $0x1,-0x4c(%rbp)
    5e95:	75 11                	jne    5ea8 <deflate+0xfdd>
    5e97:	48 8b 45 f8          	mov    -0x8(%rbp),%rax
    5e9b:	48 89 c7             	mov    %rax,%rdi
    5e9e:	e8 34 ba 00 00       	callq  118d7 <_tr_align>
    5ea3:	e9 b2 00 00 00       	jmpq   5f5a <deflate+0x108f>
    5ea8:	83 7d b4 05          	cmpl   $0x5,-0x4c(%rbp)
    5eac:	0f 84 a8 00 00 00    	je     5f5a <deflate+0x108f>
    5eb2:	48 8b 45 f8          	mov    -0x8(%rbp),%rax
    5eb6:	b9 00 00 00 00       	mov    $0x0,%ecx
    5ebb:	ba 00 00 00 00       	mov    $0x0,%edx
    5ec0:	be 00 00 00 00       	mov    $0x0,%esi
    5ec5:	48 89 c7             	mov    %rax,%rdi
    5ec8:	e8 8f b7 00 00       	callq  1165c <_tr_stored_block>
    5ecd:	83 7d b4 03          	cmpl   $0x3,-0x4c(%rbp)
    5ed1:	0f 85 83 00 00 00    	jne    5f5a <deflate+0x108f>
    5ed7:	48 8b 45 f8          	mov    -0x8(%rbp),%rax
    5edb:	48 8b 50 78          	mov    0x78(%rax),%rdx
    5edf:	48 8b 45 f8          	mov    -0x8(%rbp),%rax
    5ee3:	8b 80 84 00 00 00    	mov    0x84(%rax),%eax
    5ee9:	83 e8 01             	sub    $0x1,%eax
    5eec:	89 c0                	mov    %eax,%eax
    5eee:	48 01 c0             	add    %rax,%rax
    5ef1:	48 01 d0             	add    %rdx,%rax
    5ef4:	66 c7 00 00 00       	movw   $0x0,(%rax)
    5ef9:	48 8b 45 f8          	mov    -0x8(%rbp),%rax
    5efd:	8b 80 84 00 00 00    	mov    0x84(%rax),%eax
    5f03:	83 e8 01             	sub    $0x1,%eax
    5f06:	89 c0                	mov    %eax,%eax
    5f08:	48 8d 14 00          	lea    (%rax,%rax,1),%rdx
    5f0c:	48 8b 45 f8          	mov    -0x8(%rbp),%rax
    5f10:	48 8b 40 78          	mov    0x78(%rax),%rax
    5f14:	be 00 00 00 00       	mov    $0x0,%esi
    5f19:	48 89 c7             	mov    %rax,%rdi
    5f1c:	e8 6f c2 ff ff       	callq  2190 <memset@plt>
    5f21:	48 8b 45 f8          	mov    -0x8(%rbp),%rax
    5f25:	8b 80 b4 00 00 00    	mov    0xb4(%rax),%eax
    5f2b:	85 c0                	test   %eax,%eax
    5f2d:	75 2b                	jne    5f5a <deflate+0x108f>
    5f2f:	48 8b 45 f8          	mov    -0x8(%rbp),%rax
    5f33:	c7 80 ac 00 00 00 00 	movl   $0x0,0xac(%rax)
    5f3a:	00 00 00 
    5f3d:	48 8b 45 f8          	mov    -0x8(%rbp),%rax
    5f41:	48 c7 80 98 00 00 00 	movq   $0x0,0x98(%rax)
    5f48:	00 00 00 00 
    5f4c:	48 8b 45 f8          	mov    -0x8(%rbp),%rax
    5f50:	c7 80 2c 17 00 00 00 	movl   $0x0,0x172c(%rax)
    5f57:	00 00 00 
    5f5a:	48 8b 45 b8          	mov    -0x48(%rbp),%rax
    5f5e:	48 89 c7             	mov    %rax,%rdi
    5f61:	e8 6b ee ff ff       	callq  4dd1 <flush_pending>
    5f66:	48 8b 45 b8          	mov    -0x48(%rbp),%rax
    5f6a:	8b 40 20             	mov    0x20(%rax),%eax
    5f6d:	85 c0                	test   %eax,%eax
    5f6f:	75 15                	jne    5f86 <deflate+0x10bb>
    5f71:	48 8b 45 f8          	mov    -0x8(%rbp),%rax
    5f75:	c7 40 4c ff ff ff ff 	movl   $0xffffffff,0x4c(%rax)
    5f7c:	b8 00 00 00 00       	mov    $0x0,%eax
    5f81:	e9 28 02 00 00       	jmpq   61ae <deflate+0x12e3>
    5f86:	83 7d b4 04          	cmpl   $0x4,-0x4c(%rbp)
    5f8a:	74 0a                	je     5f96 <deflate+0x10cb>
    5f8c:	b8 00 00 00 00       	mov    $0x0,%eax
    5f91:	e9 18 02 00 00       	jmpq   61ae <deflate+0x12e3>
    5f96:	48 8b 45 f8          	mov    -0x8(%rbp),%rax
    5f9a:	8b 40 30             	mov    0x30(%rax),%eax
    5f9d:	85 c0                	test   %eax,%eax
    5f9f:	7f 0a                	jg     5fab <deflate+0x10e0>
    5fa1:	b8 01 00 00 00       	mov    $0x1,%eax
    5fa6:	e9 03 02 00 00       	jmpq   61ae <deflate+0x12e3>
    5fab:	48 8b 45 f8          	mov    -0x8(%rbp),%rax
    5faf:	8b 40 30             	mov    0x30(%rax),%eax
    5fb2:	83 f8 02             	cmp    $0x2,%eax
    5fb5:	0f 85 84 01 00 00    	jne    613f <deflate+0x1274>
    5fbb:	48 8b 45 b8          	mov    -0x48(%rbp),%rax
    5fbf:	48 8b 70 60          	mov    0x60(%rax),%rsi
    5fc3:	48 8b 45 f8          	mov    -0x8(%rbp),%rax
    5fc7:	48 8b 78 10          	mov    0x10(%rax),%rdi
    5fcb:	48 8b 45 f8          	mov    -0x8(%rbp),%rax
    5fcf:	48 8b 40 28          	mov    0x28(%rax),%rax
    5fd3:	48 8d 48 01          	lea    0x1(%rax),%rcx
    5fd7:	48 8b 55 f8          	mov    -0x8(%rbp),%rdx
    5fdb:	48 89 4a 28          	mov    %rcx,0x28(%rdx)
    5fdf:	48 01 f8             	add    %rdi,%rax
    5fe2:	89 f2                	mov    %esi,%edx
    5fe4:	88 10                	mov    %dl,(%rax)
    5fe6:	48 8b 45 b8          	mov    -0x48(%rbp),%rax
    5fea:	48 8b 40 60          	mov    0x60(%rax),%rax
    5fee:	48 c1 e8 08          	shr    $0x8,%rax
    5ff2:	48 89 c7             	mov    %rax,%rdi
    5ff5:	48 8b 45 f8          	mov    -0x8(%rbp),%rax
    5ff9:	48 8b 70 10          	mov    0x10(%rax),%rsi
    5ffd:	48 8b 45 f8          	mov    -0x8(%rbp),%rax
    6001:	48 8b 40 28          	mov    0x28(%rax),%rax
    6005:	48 8d 48 01          	lea    0x1(%rax),%rcx
    6009:	48 8b 55 f8          	mov    -0x8(%rbp),%rdx
    600d:	48 89 4a 28          	mov    %rcx,0x28(%rdx)
    6011:	48 01 f0             	add    %rsi,%rax
    6014:	89 fa                	mov    %edi,%edx
    6016:	88 10                	mov    %dl,(%rax)
    6018:	48 8b 45 b8          	mov    -0x48(%rbp),%rax
    601c:	48 8b 40 60          	mov    0x60(%rax),%rax
    6020:	48 c1 e8 10          	shr    $0x10,%rax
    6024:	48 89 c7             	mov    %rax,%rdi
    6027:	48 8b 45 f8          	mov    -0x8(%rbp),%rax
    602b:	48 8b 70 10          	mov    0x10(%rax),%rsi
    602f:	48 8b 45 f8          	mov    -0x8(%rbp),%rax
    6033:	48 8b 40 28          	mov    0x28(%rax),%rax
    6037:	48 8d 48 01          	lea    0x1(%rax),%rcx
    603b:	48 8b 55 f8          	mov    -0x8(%rbp),%rdx
    603f:	48 89 4a 28          	mov    %rcx,0x28(%rdx)
    6043:	48 01 f0             	add    %rsi,%rax
    6046:	89 fa                	mov    %edi,%edx
    6048:	88 10                	mov    %dl,(%rax)
    604a:	48 8b 45 b8          	mov    -0x48(%rbp),%rax
    604e:	48 8b 40 60          	mov    0x60(%rax),%rax
    6052:	48 c1 e8 18          	shr    $0x18,%rax
    6056:	48 89 c7             	mov    %rax,%rdi
    6059:	48 8b 45 f8          	mov    -0x8(%rbp),%rax
    605d:	48 8b 70 10          	mov    0x10(%rax),%rsi
    6061:	48 8b 45 f8          	mov    -0x8(%rbp),%rax
    6065:	48 8b 40 28          	mov    0x28(%rax),%rax
    6069:	48 8d 48 01          	lea    0x1(%rax),%rcx
    606d:	48 8b 55 f8          	mov    -0x8(%rbp),%rdx
    6071:	48 89 4a 28          	mov    %rcx,0x28(%rdx)
    6075:	48 01 f0             	add    %rsi,%rax
    6078:	89 fa                	mov    %edi,%edx
    607a:	88 10                	mov    %dl,(%rax)
    607c:	48 8b 45 b8          	mov    -0x48(%rbp),%rax
    6080:	48 8b 70 10          	mov    0x10(%rax),%rsi
    6084:	48 8b 45 f8          	mov    -0x8(%rbp),%rax
    6088:	48 8b 78 10          	mov    0x10(%rax),%rdi
    608c:	48 8b 45 f8          	mov    -0x8(%rbp),%rax
    6090:	48 8b 40 28          	mov    0x28(%rax),%rax
    6094:	48 8d 48 01          	lea    0x1(%rax),%rcx
    6098:	48 8b 55 f8          	mov    -0x8(%rbp),%rdx
    609c:	48 89 4a 28          	mov    %rcx,0x28(%rdx)
    60a0:	48 01 f8             	add    %rdi,%rax
    60a3:	89 f2                	mov    %esi,%edx
    60a5:	88 10                	mov    %dl,(%rax)
    60a7:	48 8b 45 b8          	mov    -0x48(%rbp),%rax
    60ab:	48 8b 40 10          	mov    0x10(%rax),%rax
    60af:	48 c1 e8 08          	shr    $0x8,%rax
    60b3:	48 89 c7             	mov    %rax,%rdi
    60b6:	48 8b 45 f8          	mov    -0x8(%rbp),%rax
    60ba:	48 8b 70 10          	mov    0x10(%rax),%rsi
    60be:	48 8b 45 f8          	mov    -0x8(%rbp),%rax
    60c2:	48 8b 40 28          	mov    0x28(%rax),%rax
    60c6:	48 8d 48 01          	lea    0x1(%rax),%rcx
    60ca:	48 8b 55 f8          	mov    -0x8(%rbp),%rdx
    60ce:	48 89 4a 28          	mov    %rcx,0x28(%rdx)
    60d2:	48 01 f0             	add    %rsi,%rax
    60d5:	89 fa                	mov    %edi,%edx
    60d7:	88 10                	mov    %dl,(%rax)
    60d9:	48 8b 45 b8          	mov    -0x48(%rbp),%rax
    60dd:	48 8b 40 10          	mov    0x10(%rax),%rax
    60e1:	48 c1 e8 10          	shr    $0x10,%rax
    60e5:	48 89 c7             	mov    %rax,%rdi
    60e8:	48 8b 45 f8          	mov    -0x8(%rbp),%rax
    60ec:	48 8b 70 10          	mov    0x10(%rax),%rsi
    60f0:	48 8b 45 f8          	mov    -0x8(%rbp),%rax
    60f4:	48 8b 40 28          	mov    0x28(%rax),%rax
    60f8:	48 8d 48 01          	lea    0x1(%rax),%rcx
    60fc:	48 8b 55 f8          	mov    -0x8(%rbp),%rdx
    6100:	48 89 4a 28          	mov    %rcx,0x28(%rdx)
    6104:	48 01 f0             	add    %rsi,%rax
    6107:	89 fa                	mov    %edi,%edx
    6109:	88 10                	mov    %dl,(%rax)
    610b:	48 8b 45 b8          	mov    -0x48(%rbp),%rax
    610f:	48 8b 40 10          	mov    0x10(%rax),%rax
    6113:	48 c1 e8 18          	shr    $0x18,%rax
    6117:	48 89 c7             	mov    %rax,%rdi
    611a:	48 8b 45 f8          	mov    -0x8(%rbp),%rax
    611e:	48 8b 70 10          	mov    0x10(%rax),%rsi
    6122:	48 8b 45 f8          	mov    -0x8(%rbp),%rax
    6126:	48 8b 40 28          	mov    0x28(%rax),%rax
    612a:	48 8d 48 01          	lea    0x1(%rax),%rcx
    612e:	48 8b 55 f8          	mov    -0x8(%rbp),%rdx
    6132:	48 89 4a 28          	mov    %rcx,0x28(%rdx)
    6136:	48 01 f0             	add    %rsi,%rax
    6139:	89 fa                	mov    %edi,%edx
    613b:	88 10                	mov    %dl,(%rax)
    613d:	eb 35                	jmp    6174 <deflate+0x12a9>
    613f:	48 8b 45 b8          	mov    -0x48(%rbp),%rax
    6143:	48 8b 40 60          	mov    0x60(%rax),%rax
    6147:	48 c1 e8 10          	shr    $0x10,%rax
    614b:	89 c2                	mov    %eax,%edx
    614d:	48 8b 45 f8          	mov    -0x8(%rbp),%rax
    6151:	89 d6                	mov    %edx,%esi
    6153:	48 89 c7             	mov    %rax,%rdi
    6156:	e8 19 ec ff ff       	callq  4d74 <putShortMSB>
    615b:	48 8b 45 b8          	mov    -0x48(%rbp),%rax
    615f:	48 8b 40 60          	mov    0x60(%rax),%rax
    6163:	0f b7 d0             	movzwl %ax,%edx
    6166:	48 8b 45 f8          	mov    -0x8(%rbp),%rax
    616a:	89 d6                	mov    %edx,%esi
    616c:	48 89 c7             	mov    %rax,%rdi
    616f:	e8 00 ec ff ff       	callq  4d74 <putShortMSB>
    6174:	48 8b 45 b8          	mov    -0x48(%rbp),%rax
    6178:	48 89 c7             	mov    %rax,%rdi
    617b:	e8 51 ec ff ff       	callq  4dd1 <flush_pending>
    6180:	48 8b 45 f8          	mov    -0x8(%rbp),%rax
    6184:	8b 40 30             	mov    0x30(%rax),%eax
    6187:	85 c0                	test   %eax,%eax
    6189:	7e 12                	jle    619d <deflate+0x12d2>
    618b:	48 8b 45 f8          	mov    -0x8(%rbp),%rax
    618f:	8b 40 30             	mov    0x30(%rax),%eax
    6192:	f7 d8                	neg    %eax
    6194:	89 c2                	mov    %eax,%edx
    6196:	48 8b 45 f8          	mov    -0x8(%rbp),%rax
    619a:	89 50 30             	mov    %edx,0x30(%rax)
    619d:	48 8b 45 f8          	mov    -0x8(%rbp),%rax
    61a1:	48 8b 40 28          	mov    0x28(%rax),%rax
    61a5:	48 85 c0             	test   %rax,%rax
    61a8:	0f 94 c0             	sete   %al
    61ab:	0f b6 c0             	movzbl %al,%eax
    61ae:	c9                   	leaveq 
    61af:	c3                   	retq   

00000000000061b0 <deflateEnd>:
    61b0:	55                   	push   %rbp
    61b1:	48 89 e5             	mov    %rsp,%rbp
    61b4:	48 83 ec 20          	sub    $0x20,%rsp
    61b8:	48 89 7d e8          	mov    %rdi,-0x18(%rbp)
    61bc:	48 8b 45 e8          	mov    -0x18(%rbp),%rax
    61c0:	48 89 c7             	mov    %rax,%rdi
    61c3:	e8 21 df ff ff       	callq  40e9 <deflateStateCheck>
    61c8:	85 c0                	test   %eax,%eax
    61ca:	74 0a                	je     61d6 <deflateEnd+0x26>
    61cc:	b8 fe ff ff ff       	mov    $0xfffffffe,%eax
    61d1:	e9 20 01 00 00       	jmpq   62f6 <deflateEnd+0x146>
    61d6:	48 8b 45 e8          	mov    -0x18(%rbp),%rax
    61da:	48 8b 40 38          	mov    0x38(%rax),%rax
    61de:	8b 40 08             	mov    0x8(%rax),%eax
    61e1:	89 45 fc             	mov    %eax,-0x4(%rbp)
    61e4:	48 8b 45 e8          	mov    -0x18(%rbp),%rax
    61e8:	48 8b 40 38          	mov    0x38(%rax),%rax
    61ec:	48 8b 40 10          	mov    0x10(%rax),%rax
    61f0:	48 85 c0             	test   %rax,%rax
    61f3:	74 24                	je     6219 <deflateEnd+0x69>
    61f5:	48 8b 45 e8          	mov    -0x18(%rbp),%rax
    61f9:	48 8b 40 48          	mov    0x48(%rax),%rax
    61fd:	48 8b 55 e8          	mov    -0x18(%rbp),%rdx
    6201:	48 8b 52 38          	mov    0x38(%rdx),%rdx
    6205:	48 8b 4a 10          	mov    0x10(%rdx),%rcx
    6209:	48 8b 55 e8          	mov    -0x18(%rbp),%rdx
    620d:	48 8b 52 50          	mov    0x50(%rdx),%rdx
    6211:	48 89 ce             	mov    %rcx,%rsi
    6214:	48 89 d7             	mov    %rdx,%rdi
    6217:	ff d0                	callq  *%rax
    6219:	48 8b 45 e8          	mov    -0x18(%rbp),%rax
    621d:	48 8b 40 38          	mov    0x38(%rax),%rax
    6221:	48 8b 40 78          	mov    0x78(%rax),%rax
    6225:	48 85 c0             	test   %rax,%rax
    6228:	74 24                	je     624e <deflateEnd+0x9e>
    622a:	48 8b 45 e8          	mov    -0x18(%rbp),%rax
    622e:	48 8b 40 48          	mov    0x48(%rax),%rax
    6232:	48 8b 55 e8          	mov    -0x18(%rbp),%rdx
    6236:	48 8b 52 38          	mov    0x38(%rdx),%rdx
    623a:	48 8b 4a 78          	mov    0x78(%rdx),%rcx
    623e:	48 8b 55 e8          	mov    -0x18(%rbp),%rdx
    6242:	48 8b 52 50          	mov    0x50(%rdx),%rdx
    6246:	48 89 ce             	mov    %rcx,%rsi
    6249:	48 89 d7             	mov    %rdx,%rdi
    624c:	ff d0                	callq  *%rax
    624e:	48 8b 45 e8          	mov    -0x18(%rbp),%rax
    6252:	48 8b 40 38          	mov    0x38(%rax),%rax
    6256:	48 8b 40 70          	mov    0x70(%rax),%rax
    625a:	48 85 c0             	test   %rax,%rax
    625d:	74 24                	je     6283 <deflateEnd+0xd3>
    625f:	48 8b 45 e8          	mov    -0x18(%rbp),%rax
    6263:	48 8b 40 48          	mov    0x48(%rax),%rax
    6267:	48 8b 55 e8          	mov    -0x18(%rbp),%rdx
    626b:	48 8b 52 38          	mov    0x38(%rdx),%rdx
    626f:	48 8b 4a 70          	mov    0x70(%rdx),%rcx
    6273:	48 8b 55 e8          	mov    -0x18(%rbp),%rdx
    6277:	48 8b 52 50          	mov    0x50(%rdx),%rdx
    627b:	48 89 ce             	mov    %rcx,%rsi
    627e:	48 89 d7             	mov    %rdx,%rdi
    6281:	ff d0                	callq  *%rax
    6283:	48 8b 45 e8          	mov    -0x18(%rbp),%rax
    6287:	48 8b 40 38          	mov    0x38(%rax),%rax
    628b:	48 8b 40 60          	mov    0x60(%rax),%rax
    628f:	48 85 c0             	test   %rax,%rax
    6292:	74 24                	je     62b8 <deflateEnd+0x108>
    6294:	48 8b 45 e8          	mov    -0x18(%rbp),%rax
    6298:	48 8b 40 48          	mov    0x48(%rax),%rax
    629c:	48 8b 55 e8          	mov    -0x18(%rbp),%rdx
    62a0:	48 8b 52 38          	mov    0x38(%rdx),%rdx
    62a4:	48 8b 4a 60          	mov    0x60(%rdx),%rcx
    62a8:	48 8b 55 e8          	mov    -0x18(%rbp),%rdx
    62ac:	48 8b 52 50          	mov    0x50(%rdx),%rdx
